TI ARM Assembler Unix v16.9.0 Mon Apr  3 01:00:07 2017

Tools Copyright (c) 1996-2015 Texas Instruments Incorporated
joystick_draw3.asm                                                   PAGE    1

       1                    ;******************************************************************************
       2                    ;* TI ARM C/C++ Codegen                                      Unix v16.9.0.LTS *
       3                    ;* Date/Time created: Mon Apr  3 01:00:07 2017                                *
       4                    ;******************************************************************************
       5                            .compiler_opts --abi=eabi --arm_vmrs_si_workaround=off --code_state=16 --diag_wrap=off --embed
       6 00000000                   .thumb
       7                    
       8                    $C$DW$CU        .dwtag  DW_TAG_compile_unit
       9                            .dwattr $C$DW$CU, DW_AT_name("../joystick_draw3.c")
      10                            .dwattr $C$DW$CU, DW_AT_producer("TI TI ARM C/C++ Codegen Unix v16.9.0.LTS Copyright (c) 1996-
      11                            .dwattr $C$DW$CU, DW_AT_TI_version(0x01)
      12                            .dwattr $C$DW$CU, DW_AT_comp_dir("/Users/jadedh/Desktop/BUWORK/2017 Spring/Joy3/Debug")
      13                    
      14                    $C$DW$1 .dwtag  DW_TAG_subprogram
      15                            .dwattr $C$DW$1, DW_AT_name("ADC14_getResult")
      16                            .dwattr $C$DW$1, DW_AT_TI_symbol_name("ADC14_getResult")
      17                            .dwattr $C$DW$1, DW_AT_type(*$C$DW$T$177)
      18                            .dwattr $C$DW$1, DW_AT_declaration
      19                            .dwattr $C$DW$1, DW_AT_external
      20                            .dwattr $C$DW$1, DW_AT_decl_file("/Users/jadedh/ti/tirex-content/simplelink_msp432_sdk_1_20_00
      21                            .dwattr $C$DW$1, DW_AT_decl_line(0x2ae)
      22                            .dwattr $C$DW$1, DW_AT_decl_column(0x16)
      23                    $C$DW$2 .dwtag  DW_TAG_formal_parameter
      24                            .dwattr $C$DW$2, DW_AT_type(*$C$DW$T$25)
      25                    
      26                            .dwendtag $C$DW$1
      27                    
      28                    
      29                    $C$DW$3 .dwtag  DW_TAG_subprogram
      30                            .dwattr $C$DW$3, DW_AT_name("GPIO_setAsPeripheralModuleFunctionOutputPin")
      31                            .dwattr $C$DW$3, DW_AT_TI_symbol_name("GPIO_setAsPeripheralModuleFunctionOutputPin")
      32                            .dwattr $C$DW$3, DW_AT_declaration
      33                            .dwattr $C$DW$3, DW_AT_external
      34                            .dwattr $C$DW$3, DW_AT_decl_file("/Users/jadedh/ti/tirex-content/simplelink_msp432_sdk_1_20_00
      35                            .dwattr $C$DW$3, DW_AT_decl_line(0x109)
      36                            .dwattr $C$DW$3, DW_AT_decl_column(0x0d)
      37                    $C$DW$4 .dwtag  DW_TAG_formal_parameter
      38                            .dwattr $C$DW$4, DW_AT_type(*$C$DW$T$145)
      39                    
      40                    $C$DW$5 .dwtag  DW_TAG_formal_parameter
      41                            .dwattr $C$DW$5, DW_AT_type(*$C$DW$T$177)
      42                    
      43                    $C$DW$6 .dwtag  DW_TAG_formal_parameter
      44                            .dwattr $C$DW$6, DW_AT_type(*$C$DW$T$145)
      45                    
      46                            .dwendtag $C$DW$3
      47                    
      48                    
      49                    $C$DW$7 .dwtag  DW_TAG_subprogram
      50                            .dwattr $C$DW$7, DW_AT_name("Timer_A_registerInterrupt")
      51                            .dwattr $C$DW$7, DW_AT_TI_symbol_name("Timer_A_registerInterrupt")
      52                            .dwattr $C$DW$7, DW_AT_declaration
      53                            .dwattr $C$DW$7, DW_AT_external
      54                            .dwattr $C$DW$7, DW_AT_decl_file("/Users/jadedh/ti/tirex-content/simplelink_msp432_sdk_1_20_00
      55                            .dwattr $C$DW$7, DW_AT_decl_line(0x4d6)
TI ARM Assembler Unix v16.9.0 Mon Apr  3 01:00:07 2017

Tools Copyright (c) 1996-2015 Texas Instruments Incorporated
joystick_draw3.asm                                                   PAGE    2

      56                            .dwattr $C$DW$7, DW_AT_decl_column(0x0d)
      57                    $C$DW$8 .dwtag  DW_TAG_formal_parameter
      58                            .dwattr $C$DW$8, DW_AT_type(*$C$DW$T$25)
      59                    
      60                    $C$DW$9 .dwtag  DW_TAG_formal_parameter
      61                            .dwattr $C$DW$9, DW_AT_type(*$C$DW$T$145)
      62                    
      63                    $C$DW$10        .dwtag  DW_TAG_formal_parameter
      64                            .dwattr $C$DW$10, DW_AT_type(*$C$DW$T$265)
      65                    
      66                            .dwendtag $C$DW$7
      67                    
      68                    
      69                    $C$DW$11        .dwtag  DW_TAG_subprogram
      70                            .dwattr $C$DW$11, DW_AT_name("printf")
      71                            .dwattr $C$DW$11, DW_AT_TI_symbol_name("printf")
      72                            .dwattr $C$DW$11, DW_AT_type(*$C$DW$T$10)
      73                            .dwattr $C$DW$11, DW_AT_declaration
      74                            .dwattr $C$DW$11, DW_AT_external
      75                            .dwattr $C$DW$11, DW_AT_decl_file("/Applications/ti/ccsv7/tools/compiler/ti-cgt-arm_16.9.0.LTS
      76                            .dwattr $C$DW$11, DW_AT_decl_line(0xf5)
      77                            .dwattr $C$DW$11, DW_AT_decl_column(0x19)
      78                    $C$DW$12        .dwtag  DW_TAG_formal_parameter
      79                            .dwattr $C$DW$12, DW_AT_type(*$C$DW$T$312)
      80                    
      81                    $C$DW$13        .dwtag  DW_TAG_unspecified_parameters
      82                    
      83                            .dwendtag $C$DW$11
      84                    
      85                    
      86                    $C$DW$14        .dwtag  DW_TAG_subprogram
      87                            .dwattr $C$DW$14, DW_AT_name("print_current_results")
      88                            .dwattr $C$DW$14, DW_AT_TI_symbol_name("print_current_results")
      89                            .dwattr $C$DW$14, DW_AT_type(*$C$DW$T$10)
      90                            .dwattr $C$DW$14, DW_AT_declaration
      91                            .dwattr $C$DW$14, DW_AT_external
      92                            .dwattr $C$DW$14, DW_AT_decl_file("../joystick_draw3.c")
      93                            .dwattr $C$DW$14, DW_AT_decl_line(0x79)
      94                            .dwattr $C$DW$14, DW_AT_decl_column(0x15)
      95                            .dwendtag $C$DW$14
      96                    
      97                            .global duty_cycle
      98                            .common duty_cycle,4,4
      99                    $C$DW$15        .dwtag  DW_TAG_variable
     100                            .dwattr $C$DW$15, DW_AT_name("duty_cycle")
     101                            .dwattr $C$DW$15, DW_AT_TI_symbol_name("duty_cycle")
     102                            .dwattr $C$DW$15, DW_AT_location[DW_OP_addr duty_cycle]
     103                            .dwattr $C$DW$15, DW_AT_type(*$C$DW$T$325)
     104                            .dwattr $C$DW$15, DW_AT_external
     105                            .dwattr $C$DW$15, DW_AT_decl_file("../joystick_draw3.c")
     106                            .dwattr $C$DW$15, DW_AT_decl_line(0x4e)
     107                            .dwattr $C$DW$15, DW_AT_decl_column(0x17)
     108                    
     109                            .global frequency
     110                            .common frequency,4,4
TI ARM Assembler Unix v16.9.0 Mon Apr  3 01:00:07 2017

Tools Copyright (c) 1996-2015 Texas Instruments Incorporated
joystick_draw3.asm                                                   PAGE    3

     111                    $C$DW$16        .dwtag  DW_TAG_variable
     112                            .dwattr $C$DW$16, DW_AT_name("frequency")
     113                            .dwattr $C$DW$16, DW_AT_TI_symbol_name("frequency")
     114                            .dwattr $C$DW$16, DW_AT_location[DW_OP_addr frequency]
     115                            .dwattr $C$DW$16, DW_AT_type(*$C$DW$T$325)
     116                            .dwattr $C$DW$16, DW_AT_external
     117                            .dwattr $C$DW$16, DW_AT_decl_file("../joystick_draw3.c")
     118                            .dwattr $C$DW$16, DW_AT_decl_line(0x4f)
     119                            .dwattr $C$DW$16, DW_AT_decl_column(0x17)
     120                    
     121                            .global resultsBuffer
     122                            .common resultsBuffer,8,4
     123                    $C$DW$17        .dwtag  DW_TAG_variable
     124                            .dwattr $C$DW$17, DW_AT_name("resultsBuffer")
     125                            .dwattr $C$DW$17, DW_AT_TI_symbol_name("resultsBuffer")
     126                            .dwattr $C$DW$17, DW_AT_location[DW_OP_addr resultsBuffer]
     127                            .dwattr $C$DW$17, DW_AT_type(*$C$DW$T$326)
     128                            .dwattr $C$DW$17, DW_AT_external
     129                            .dwattr $C$DW$17, DW_AT_decl_file("../joystick_draw3.c")
     130                            .dwattr $C$DW$17, DW_AT_decl_line(0x50)
     131                            .dwattr $C$DW$17, DW_AT_decl_column(0x17)
     132                    
     133                            .global counter
     134                            .common counter,4,4
     135                    $C$DW$18        .dwtag  DW_TAG_variable
     136                            .dwattr $C$DW$18, DW_AT_name("counter")
     137                            .dwattr $C$DW$18, DW_AT_TI_symbol_name("counter")
     138                            .dwattr $C$DW$18, DW_AT_location[DW_OP_addr counter]
     139                            .dwattr $C$DW$18, DW_AT_type(*$C$DW$T$325)
     140                            .dwattr $C$DW$18, DW_AT_external
     141                            .dwattr $C$DW$18, DW_AT_decl_file("../joystick_draw3.c")
     142                            .dwattr $C$DW$18, DW_AT_decl_line(0x51)
     143                            .dwattr $C$DW$18, DW_AT_decl_column(0x17)
     144                    
     145                            .global state
     146 00000000                   .data
     147                            .align  4
     148                            .elfsym state,SYM_SIZE(4)
     149 00000000           state:
     150 00000000 00000001          .bits   1,32                    ; state @ 0
     151                    
     152                    $C$DW$19        .dwtag  DW_TAG_variable
     153                            .dwattr $C$DW$19, DW_AT_name("state")
     154                            .dwattr $C$DW$19, DW_AT_TI_symbol_name("state")
     155                            .dwattr $C$DW$19, DW_AT_location[DW_OP_addr state]
     156                            .dwattr $C$DW$19, DW_AT_type(*$C$DW$T$325)
     157                            .dwattr $C$DW$19, DW_AT_external
     158                            .dwattr $C$DW$19, DW_AT_decl_file("../joystick_draw3.c")
     159                            .dwattr $C$DW$19, DW_AT_decl_line(0x52)
     160                            .dwattr $C$DW$19, DW_AT_decl_column(0x17)
     161                    
     162                            .global buttonPressed
     163 00000004                   .data
     164                            .align  2
     165                            .elfsym buttonPressed,SYM_SIZE(2)
TI ARM Assembler Unix v16.9.0 Mon Apr  3 01:00:07 2017

Tools Copyright (c) 1996-2015 Texas Instruments Incorporated
joystick_draw3.asm                                                   PAGE    4

     166 00000004           buttonPressed:
     167 00000004 00000000          .bits   0,16                    ; buttonPressed @ 0
     168                    
     169                    $C$DW$20        .dwtag  DW_TAG_variable
     170                            .dwattr $C$DW$20, DW_AT_name("buttonPressed")
     171                            .dwattr $C$DW$20, DW_AT_TI_symbol_name("buttonPressed")
     172                            .dwattr $C$DW$20, DW_AT_location[DW_OP_addr buttonPressed]
     173                            .dwattr $C$DW$20, DW_AT_type(*$C$DW$T$19)
     174                            .dwattr $C$DW$20, DW_AT_external
     175                            .dwattr $C$DW$20, DW_AT_decl_file("../joystick_draw3.c")
     176                            .dwattr $C$DW$20, DW_AT_decl_line(0x57)
     177                            .dwattr $C$DW$20, DW_AT_decl_column(0x0a)
     178                    
     179                            .global print_flag
     180                            .common print_flag,2,2
     181                    $C$DW$21        .dwtag  DW_TAG_variable
     182                            .dwattr $C$DW$21, DW_AT_name("print_flag")
     183                            .dwattr $C$DW$21, DW_AT_TI_symbol_name("print_flag")
     184                            .dwattr $C$DW$21, DW_AT_location[DW_OP_addr print_flag]
     185                            .dwattr $C$DW$21, DW_AT_type(*$C$DW$T$19)
     186                            .dwattr $C$DW$21, DW_AT_external
     187                            .dwattr $C$DW$21, DW_AT_decl_file("../joystick_draw3.c")
     188                            .dwattr $C$DW$21, DW_AT_decl_line(0x59)
     189                            .dwattr $C$DW$21, DW_AT_decl_column(0x0a)
     190                    
     191                            .global upConfig
     192 00000000                   .sect   ".const:upConfig"
     193                            .clink
     194                            .align  4
     195                            .elfsym upConfig,SYM_SIZE(24)
     196 00000000           upConfig:
     197 00000000 00000200          .bits   512,32                  ; upConfig.clockSource @ 0
     198 00000004 00000001          .bits   1,32                    ; upConfig.clockSourceDivider @ 32
     199 00000008 00000063          .bits   99,32                   ; upConfig.timerPeriod @ 64
     200 0000000c 00000000          .bits   0,32                    ; upConfig.timerInterruptEnable_TAIE @ 96
     201 00000010 00000000          .bits   0,32                    ; upConfig.captureCompareInterruptEnable_CCR0_CCIE @ 128
     202 00000014 00000004          .bits   4,32                    ; upConfig.timerClear @ 160
     203                    
     204                    $C$DW$22        .dwtag  DW_TAG_variable
     205                            .dwattr $C$DW$22, DW_AT_name("upConfig")
     206                            .dwattr $C$DW$22, DW_AT_TI_symbol_name("upConfig")
     207                            .dwattr $C$DW$22, DW_AT_location[DW_OP_addr upConfig]
     208                            .dwattr $C$DW$22, DW_AT_type(*$C$DW$T$258)
     209                            .dwattr $C$DW$22, DW_AT_external
     210                            .dwattr $C$DW$22, DW_AT_decl_file("../joystick_draw3.c")
     211                            .dwattr $C$DW$22, DW_AT_decl_line(0x80)
     212                            .dwattr $C$DW$22, DW_AT_decl_column(0x1c)
     213                    
     214                            .global ccr0_Config
     215 00000000                   .sect   ".const:ccr0_Config"
     216                            .clink
     217                            .align  4
     218                            .elfsym ccr0_Config,SYM_SIZE(16)
     219 00000000           ccr0_Config:
     220 00000000 00000002          .bits   2,32                    ; ccr0_Config.compareRegister @ 0
TI ARM Assembler Unix v16.9.0 Mon Apr  3 01:00:07 2017

Tools Copyright (c) 1996-2015 Texas Instruments Incorporated
joystick_draw3.asm                                                   PAGE    5

     221 00000004 00000010          .bits   16,32                   ; ccr0_Config.compareInterruptEnable @ 32
     222 00000008 00000000          .bits   0,32                    ; ccr0_Config.compareOutputMode @ 64
     223 0000000c 00000063          .bits   99,32                   ; ccr0_Config.compareValue @ 96
     224                    
     225                    $C$DW$23        .dwtag  DW_TAG_variable
     226                            .dwattr $C$DW$23, DW_AT_name("ccr0_Config")
     227                            .dwattr $C$DW$23, DW_AT_TI_symbol_name("ccr0_Config")
     228                            .dwattr $C$DW$23, DW_AT_location[DW_OP_addr ccr0_Config]
     229                            .dwattr $C$DW$23, DW_AT_type(*$C$DW$T$250)
     230                            .dwattr $C$DW$23, DW_AT_external
     231                            .dwattr $C$DW$23, DW_AT_decl_file("../joystick_draw3.c")
     232                            .dwattr $C$DW$23, DW_AT_decl_line(0x89)
     233                            .dwattr $C$DW$23, DW_AT_decl_column(0x21)
     234                    
     235                            .global ccr4_Config
     236 00000000                   .sect   ".const:ccr4_Config"
     237                            .clink
     238                            .align  4
     239                            .elfsym ccr4_Config,SYM_SIZE(16)
     240 00000000           ccr4_Config:
     241 00000000 0000000A          .bits   10,32                   ; ccr4_Config.compareRegister @ 0
     242 00000004 00000000          .bits   0,32                    ; ccr4_Config.compareInterruptEnable @ 32
     243 00000008 000000E0          .bits   224,32                  ; ccr4_Config.compareOutputMode @ 64
     244 0000000c 0000000A          .bits   10,32                   ; ccr4_Config.compareValue @ 96
     245                    
     246                    $C$DW$24        .dwtag  DW_TAG_variable
     247                            .dwattr $C$DW$24, DW_AT_name("ccr4_Config")
     248                            .dwattr $C$DW$24, DW_AT_TI_symbol_name("ccr4_Config")
     249                            .dwattr $C$DW$24, DW_AT_location[DW_OP_addr ccr4_Config]
     250                            .dwattr $C$DW$24, DW_AT_type(*$C$DW$T$250)
     251                            .dwattr $C$DW$24, DW_AT_external
     252                            .dwattr $C$DW$24, DW_AT_decl_file("../joystick_draw3.c")
     253                            .dwattr $C$DW$24, DW_AT_decl_line(0x90)
     254                            .dwattr $C$DW$24, DW_AT_decl_column(0x21)
     255                    
     256                    ;       /Applications/ti/ccsv7/tools/compiler/ti-cgt-arm_16.9.0.LTS/bin/armopt /var/tmp/71327WPFxsq /v
     257 00000000                   .sect   ".text:TA0_0_Handler"
     258                            .clink
     259                            .thumbfunc TA0_0_Handler
     260 00000000                   .thumb
     261                            .global TA0_0_Handler
     262                    
     263                    $C$DW$25        .dwtag  DW_TAG_subprogram
     264                            .dwattr $C$DW$25, DW_AT_name("TA0_0_Handler")
     265                            .dwattr $C$DW$25, DW_AT_low_pc(TA0_0_Handler)
     266                            .dwattr $C$DW$25, DW_AT_high_pc(0x00)
     267                            .dwattr $C$DW$25, DW_AT_TI_symbol_name("TA0_0_Handler")
     268                            .dwattr $C$DW$25, DW_AT_external
     269                            .dwattr $C$DW$25, DW_AT_TI_begin_file("../joystick_draw3.c")
     270                            .dwattr $C$DW$25, DW_AT_TI_begin_line(0x98)
     271                            .dwattr $C$DW$25, DW_AT_TI_begin_column(0x06)
     272                            .dwattr $C$DW$25, DW_AT_decl_file("../joystick_draw3.c")
     273                            .dwattr $C$DW$25, DW_AT_decl_line(0x98)
     274                            .dwattr $C$DW$25, DW_AT_decl_column(0x06)
     275                            .dwattr $C$DW$25, DW_AT_TI_max_frame_size(0x08)
TI ARM Assembler Unix v16.9.0 Mon Apr  3 01:00:07 2017

Tools Copyright (c) 1996-2015 Texas Instruments Incorporated
joystick_draw3.asm                                                   PAGE    6

     276                            .dwpsn  file "../joystick_draw3.c",line 152,column 21,is_stmt,address TA0_0_Handler,isa 1
     277                    
     278                            .dwfde $C$DW$CIE, TA0_0_Handler
     279                    ;----------------------------------------------------------------------
     280                    ; 152 | void TA0_0_Handler(){                                                  
     281                    ;----------------------------------------------------------------------
     282                    
     283                    ;*****************************************************************************
     284                    ;* FUNCTION NAME: TA0_0_Handler                                              *
     285                    ;*                                                                           *
     286                    ;*   Regs Modified     : A1,A2,A3,A4,V9,SP,LR,SR,D0,D0_hi,D1,D1_hi,D2,D2_hi, *
     287                    ;*                           D3,D3_hi,D4,D4_hi,D5,D5_hi,D6,D6_hi,D7,D7_hi,   *
     288                    ;*                           FPEXC,FPSCR                                     *
     289                    ;*   Regs Used         : A1,A2,A3,A4,V9,SP,LR,SR,D0,D0_hi,D1,D1_hi,D2,D2_hi, *
     290                    ;*                           D3,D3_hi,D4,D4_hi,D5,D5_hi,D6,D6_hi,D7,D7_hi,   *
     291                    ;*                           FPEXC,FPSCR                                     *
     292                    ;*   Local Frame Size  : 0 Args + 0 Auto + 4 Save = 4 byte                   *
     293                    ;*****************************************************************************
     294 00000000           TA0_0_Handler:
     295                    ;* --------------------------------------------------------------------------*
     296                    ;* A2    assigned to $O$C1
     297                    ;* A3    assigned to $O$C2
     298                    ;* A2    assigned to $O$K13
     299                            .dwcfi  cfa_offset, 0
     300                            .dwpsn  file "../joystick_draw3.c",line 153,column 5,is_stmt,isa 1
     301                    ;----------------------------------------------------------------------
     302                    ; 153 | MAP_Timer_A_clearCaptureCompareInterrupt(TIMER_A0_BASE,TIMER_A_CAPTUREC
     303                    ;     | OMPARE_REGISTER_0); // clear flag                                      
     304                    ;----------------------------------------------------------------------
     305 00000000 480B              LDR       A1, $C$CON1           ; [DPU_3_PIPE] |153|  ; [ORIG 16-BIT INS]
     306 00000002 B508              PUSH      {A4, LR}              ; [DPU_3_PIPE]  ; [ORIG 16-BIT INS]
     307                            .dwcfi  cfa_offset, 8
     308                            .dwcfi  save_reg_to_mem, 14, -4
     309                            .dwcfi  save_reg_to_mem, 3, -8
     310 00000004 6800              LDR       A1, [A1, #0]          ; [DPU_3_PIPE] |153|  ; [ORIG 16-BIT INS]
     311 00000006 6BC0              LDR       A1, [A1, #60]         ; [DPU_3_PIPE] |153|  ; [ORIG 16-BIT INS]
     312 00000008 2102              MOVS      A2, #2                ; [DPU_3_PIPE] |153|  ; [ORIG 16-BIT INS]
     313 0000000a 4602              MOV       A3, A1                ; [DPU_3_PIPE] |153|  ; [ORIG 16-BIT INS]
     314 0000000c 4080F04F          MOV       A1, #1073741824       ; [DPU_3_PIPE] |153|  ; [KEEP 32-BIT INS]
     315                    $C$DW$26        .dwtag  DW_TAG_TI_branch
     316                            .dwattr $C$DW$26, DW_AT_low_pc(0x00)
     317                            .dwattr $C$DW$26, DW_AT_TI_call
     318                            .dwattr $C$DW$26, DW_AT_TI_indirect
     319                    
     320 00000010 4790              BLX       A3                    ; [DPU_3_PIPE] |153|  ; [ORIG 16-BIT INS]
     321                            ; CALL OCCURS {}                 ; [] |153| 
     322                            .dwpsn  file "../joystick_draw3.c",line 155,column 5,is_stmt,isa 1
     323                    ;----------------------------------------------------------------------
     324                    ; 155 | if (--counter == 0){                                                   
     325                    ;----------------------------------------------------------------------
     326 00000012 4908              LDR       A2, $C$CON2           ; [DPU_3_PIPE] |155|  ; [ORIG 16-BIT INS]
     327 00000014 6808              LDR       A1, [A2, #0]          ; [DPU_3_PIPE] |155|  ; [ORIG 16-BIT INS]
     328 00000016 1E40              SUBS      A1, A1, #1            ; [DPU_3_PIPE] |155|  ; [ORIG 16-BIT INS]
     329 00000018 6008              STR       A1, [A2, #0]          ; [DPU_3_PIPE] |155|  ; [ORIG 16-BIT INS]
     330 0000001a 6808              LDR       A1, [A2, #0]          ; [DPU_3_PIPE] |155|  ; [ORIG 16-BIT INS]
TI ARM Assembler Unix v16.9.0 Mon Apr  3 01:00:07 2017

Tools Copyright (c) 1996-2015 Texas Instruments Incorporated
joystick_draw3.asm                                                   PAGE    7

     331 0000001c B938              CBNZ      A1, ||$C$L1||         ; []  ; [ORIG 16-BIT INS]
     332                            ; BRANCHCC OCCURS {||$C$L1||}    ; [] |155| 
     333                    ;* --------------------------------------------------------------------------*
     334                            .dwpsn  file "../joystick_draw3.c",line 156,column 9,is_stmt,isa 1
     335                    ;----------------------------------------------------------------------
     336                    ; 156 | TIMER_A0->CCTL[4]^=TIMER_A_CCTLN_OUTMOD_7; // toggle between mode 0 and
     337                    ;     |  mode 7 reset/set                                                      
     338                    ;----------------------------------------------------------------------
     339 0000001e 4280F04F          MOV       A3, #1073741824       ; [DPU_3_PIPE] |156|  ; [KEEP 32-BIT INS]
     340 00000022 8950              LDRH      A1, [A3, #10]         ; [DPU_3_PIPE] |156|  ; [ORIG 16-BIT INS]
     341 00000024 00E0F080          EOR       A1, A1, #224          ; [DPU_3_PIPE] |156|  ; [KEEP 32-BIT INS]
     342 00000028 8150              STRH      A1, [A3, #10]         ; [DPU_3_PIPE] |156|  ; [ORIG 16-BIT INS]
     343                            .dwpsn  file "../joystick_draw3.c",line 157,column 9,is_stmt,isa 1
     344                    ;----------------------------------------------------------------------
     345                    ; 157 | counter=AUDIO_COUNT;                                                   
     346                    ;----------------------------------------------------------------------
     347 0000002a 2332              MOVS      A4, #50               ; [DPU_3_PIPE] |157|  ; [ORIG 16-BIT INS]
     348 0000002c 600B              STR       A4, [A2, #0]          ; [DPU_3_PIPE] |157|  ; [ORIG 16-BIT INS]
     349                    ;* --------------------------------------------------------------------------*
     350                    ||$C$L1||:    
     351                    $C$DW$27        .dwtag  DW_TAG_TI_branch
     352                            .dwattr $C$DW$27, DW_AT_low_pc(0x00)
     353                            .dwattr $C$DW$27, DW_AT_TI_return
     354                    
     355 0000002e BD08              POP       {A4, PC}              ; [DPU_3_PIPE]  ; [ORIG 16-BIT INS]
     356                            .dwcfi  cfa_offset, 0
     357                            ; BRANCH OCCURS                  ; [] 
     358                            .dwattr $C$DW$25, DW_AT_TI_end_file("../joystick_draw3.c")
     359                            .dwattr $C$DW$25, DW_AT_TI_end_line(0x9f)
     360                            .dwattr $C$DW$25, DW_AT_TI_end_column(0x01)
     361                            .dwendentry
     362                            .dwendtag $C$DW$25
     363                    
     364 00000000                   .sect   ".text:init_timer"
     365                            .clink
     366                            .thumbfunc init_timer
     367 00000000                   .thumb
     368                            .global init_timer
     369                    
     370                    $C$DW$28        .dwtag  DW_TAG_subprogram
     371                            .dwattr $C$DW$28, DW_AT_name("init_timer")
     372                            .dwattr $C$DW$28, DW_AT_low_pc(init_timer)
     373                            .dwattr $C$DW$28, DW_AT_high_pc(0x00)
     374                            .dwattr $C$DW$28, DW_AT_TI_symbol_name("init_timer")
     375                            .dwattr $C$DW$28, DW_AT_external
     376                            .dwattr $C$DW$28, DW_AT_TI_begin_file("../joystick_draw3.c")
     377                            .dwattr $C$DW$28, DW_AT_TI_begin_line(0xa2)
     378                            .dwattr $C$DW$28, DW_AT_TI_begin_column(0x06)
     379                            .dwattr $C$DW$28, DW_AT_decl_file("../joystick_draw3.c")
     380                            .dwattr $C$DW$28, DW_AT_decl_line(0xa2)
     381                            .dwattr $C$DW$28, DW_AT_decl_column(0x06)
     382                            .dwattr $C$DW$28, DW_AT_TI_max_frame_size(0x10)
     383                            .dwpsn  file "../joystick_draw3.c",line 162,column 18,is_stmt,address init_timer,isa 1
     384                    
     385                            .dwfde $C$DW$CIE, init_timer
TI ARM Assembler Unix v16.9.0 Mon Apr  3 01:00:07 2017

Tools Copyright (c) 1996-2015 Texas Instruments Incorporated
joystick_draw3.asm                                                   PAGE    8

     386                    ;----------------------------------------------------------------------
     387                    ; 162 | void init_timer(){      // initialization and start of timer           
     388                    ; 164 | // Configures Pin 6.0 and 4.4 as ADC input                             
     389                    ;----------------------------------------------------------------------
     390                    
     391                    ;*****************************************************************************
     392                    ;* FUNCTION NAME: init_timer                                                 *
     393                    ;*                                                                           *
     394                    ;*   Regs Modified     : A1,A2,A3,A4,V1,V2,V9,SP,LR,SR,D0,D0_hi,D1,D1_hi,D2, *
     395                    ;*                           D2_hi,D3,D3_hi,D4,D4_hi,D5,D5_hi,D6,D6_hi,D7,   *
     396                    ;*                           D7_hi,FPEXC,FPSCR                               *
     397                    ;*   Regs Used         : A1,A2,A3,A4,V1,V2,V9,SP,LR,SR,D0,D0_hi,D1,D1_hi,D2, *
     398                    ;*                           D2_hi,D3,D3_hi,D4,D4_hi,D5,D5_hi,D6,D6_hi,D7,   *
     399                    ;*                           D7_hi,FPEXC,FPSCR                               *
     400                    ;*   Local Frame Size  : 0 Args + 0 Auto + 12 Save = 12 byte                 *
     401                    ;*****************************************************************************
     402 00000000           init_timer:
     403                    ;* --------------------------------------------------------------------------*
     404                    ;* V1    assigned to $O$C1
     405                            .dwcfi  cfa_offset, 0
     406 00000000 B538              PUSH      {A4, V1, V2, LR}      ; [DPU_3_PIPE]  ; [ORIG 16-BIT INS]
     407                            .dwcfi  cfa_offset, 16
     408                            .dwcfi  save_reg_to_mem, 14, -4
     409                            .dwcfi  save_reg_to_mem, 5, -8
     410                            .dwcfi  save_reg_to_mem, 4, -12
     411                            .dwcfi  save_reg_to_mem, 3, -16
     412                            .dwpsn  file "../joystick_draw3.c",line 165,column 5,is_stmt,isa 1
     413                    ;----------------------------------------------------------------------
     414                    ; 165 | MAP_GPIO_setAsPeripheralModuleFunctionInputPin(GPIO_PORT_P6, GPIO_PIN0,
     415                    ;     |  GPIO_TERTIARY_MODULE_FUNCTION);                                       
     416                    ;----------------------------------------------------------------------
     417 00000002 7400F04F          MOV       V1, #33554432         ; [DPU_3_PIPE] |165|  ; [KEEP 32-BIT INS]
     418 00000006 0824F8D4          LDR       A1, [V1, #2084]       ; [DPU_3_PIPE] |165|  ; [KEEP 32-BIT INS]
     419 0000000a 69C0              LDR       A1, [A1, #28]         ; [DPU_3_PIPE] |165|  ; [ORIG 16-BIT INS]
     420 0000000c 2101              MOVS      A2, #1                ; [DPU_3_PIPE] |165|  ; [ORIG 16-BIT INS]
     421 0000000e 2203              MOVS      A3, #3                ; [DPU_3_PIPE] |165|  ; [ORIG 16-BIT INS]
     422 00000010 4603              MOV       A4, A1                ; [DPU_3_PIPE] |165|  ; [ORIG 16-BIT INS]
     423 00000012 2006              MOVS      A1, #6                ; [DPU_3_PIPE] |165|  ; [ORIG 16-BIT INS]
     424                    $C$DW$29        .dwtag  DW_TAG_TI_branch
     425                            .dwattr $C$DW$29, DW_AT_low_pc(0x00)
     426                            .dwattr $C$DW$29, DW_AT_TI_call
     427                            .dwattr $C$DW$29, DW_AT_TI_indirect
     428                    
     429 00000014 4798              BLX       A4                    ; [DPU_3_PIPE] |165|  ; [ORIG 16-BIT INS]
     430                            ; CALL OCCURS {}                 ; [] |165| 
     431                            .dwpsn  file "../joystick_draw3.c",line 166,column 5,is_stmt,isa 1
     432                    ;----------------------------------------------------------------------
     433                    ; 166 | MAP_GPIO_setAsPeripheralModuleFunctionInputPin(GPIO_PORT_P4, GPIO_PIN4,
     434                    ;     |  GPIO_TERTIARY_MODULE_FUNCTION);                                       
     435                    ; 168 | // Initializing ADC (ADCOSC/64/8)                                      
     436                    ;----------------------------------------------------------------------
     437 00000016 0824F8D4          LDR       A1, [V1, #2084]       ; [DPU_3_PIPE] |166|  ; [KEEP 32-BIT INS]
     438 0000001a 69C0              LDR       A1, [A1, #28]         ; [DPU_3_PIPE] |166|  ; [ORIG 16-BIT INS]
     439 0000001c 2110              MOVS      A2, #16               ; [DPU_3_PIPE] |166|  ; [ORIG 16-BIT INS]
     440 0000001e 2203              MOVS      A3, #3                ; [DPU_3_PIPE] |166|  ; [ORIG 16-BIT INS]
TI ARM Assembler Unix v16.9.0 Mon Apr  3 01:00:07 2017

Tools Copyright (c) 1996-2015 Texas Instruments Incorporated
joystick_draw3.asm                                                   PAGE    9

     441 00000020 4603              MOV       A4, A1                ; [DPU_3_PIPE] |166|  ; [ORIG 16-BIT INS]
     442 00000022 2004              MOVS      A1, #4                ; [DPU_3_PIPE] |166|  ; [ORIG 16-BIT INS]
     443                    $C$DW$30        .dwtag  DW_TAG_TI_branch
     444                            .dwattr $C$DW$30, DW_AT_low_pc(0x00)
     445                            .dwattr $C$DW$30, DW_AT_TI_call
     446                            .dwattr $C$DW$30, DW_AT_TI_indirect
     447                    
     448 00000024 4798              BLX       A4                    ; [DPU_3_PIPE] |166|  ; [ORIG 16-BIT INS]
     449                            ; CALL OCCURS {}                 ; [] |166| 
     450                            .dwpsn  file "../joystick_draw3.c",line 169,column 5,is_stmt,isa 1
     451                    ;----------------------------------------------------------------------
     452                    ; 169 | MAP_ADC14_enableModule();                                              
     453                    ;----------------------------------------------------------------------
     454 00000026 0804F8D4          LDR       A1, [V1, #2052]       ; [DPU_3_PIPE] |169|  ; [KEEP 32-BIT INS]
     455 0000002a 6800              LDR       A1, [A1, #0]          ; [DPU_3_PIPE] |169|  ; [ORIG 16-BIT INS]
     456                    $C$DW$31        .dwtag  DW_TAG_TI_branch
     457                            .dwattr $C$DW$31, DW_AT_low_pc(0x00)
     458                            .dwattr $C$DW$31, DW_AT_TI_call
     459                            .dwattr $C$DW$31, DW_AT_TI_indirect
     460                    
     461 0000002c 4780              BLX       A1                    ; [DPU_3_PIPE] |169|  ; [ORIG 16-BIT INS]
     462                            ; CALL OCCURS {}                 ; [] |169| 
     463                            .dwpsn  file "../joystick_draw3.c",line 170,column 5,is_stmt,isa 1
     464                    ;----------------------------------------------------------------------
     465                    ; 170 | MAP_ADC14_initModule(ADC_CLOCKSOURCE_ADCOSC, ADC_PREDIVIDER_64, ADC_DIV
     466                    ;     | IDER_8, 0);                                                            
     467                    ; 172 | // Configuring ADC Memory (ADC_MEM0 - ADC_MEM1 (A15, A9)  with repeat)
     468                    ;     | with internal 2.5v reference                                           
     469                    ;----------------------------------------------------------------------
     470 0000002e 0804F8D4          LDR       A1, [V1, #2052]       ; [DPU_3_PIPE] |170|  ; [KEEP 32-BIT INS]
     471 00000032 6880              LDR       A1, [A1, #8]          ; [DPU_3_PIPE] |170|  ; [ORIG 16-BIT INS]
     472 00000034 4140F04F          MOV       A2, #-1073741824      ; [DPU_3_PIPE] |170|  ; [KEEP 32-BIT INS]
     473 00000038 72E0F04F          MOV       A3, #29360128         ; [DPU_3_PIPE] |170|  ; [KEEP 32-BIT INS]
     474 0000003c 4605              MOV       V2, A1                ; [DPU_3_PIPE] |170|  ; [ORIG 16-BIT INS]
     475 0000003e 2000              MOVS      A1, #0                ; [DPU_3_PIPE] |170|  ; [ORIG 16-BIT INS]
     476 00000040 4603              MOV       A4, A1                ; [DPU_3_PIPE] |170|  ; [ORIG 16-BIT INS]
     477                    $C$DW$32        .dwtag  DW_TAG_TI_branch
     478                            .dwattr $C$DW$32, DW_AT_low_pc(0x00)
     479                            .dwattr $C$DW$32, DW_AT_TI_call
     480                            .dwattr $C$DW$32, DW_AT_TI_indirect
     481                    
     482 00000042 47A8              BLX       V2                    ; [DPU_3_PIPE] |170|  ; [ORIG 16-BIT INS]
     483                            ; CALL OCCURS {}                 ; [] |170| 
     484                            .dwpsn  file "../joystick_draw3.c",line 173,column 5,is_stmt,isa 1
     485                    ;----------------------------------------------------------------------
     486                    ; 173 | MAP_ADC14_configureMultiSequenceMode(ADC_MEM0, ADC_MEM1, true);        
     487                    ;----------------------------------------------------------------------
     488 00000044 0804F8D4          LDR       A1, [V1, #2052]       ; [DPU_3_PIPE] |173|  ; [KEEP 32-BIT INS]
     489 00000048 69C0              LDR       A1, [A1, #28]         ; [DPU_3_PIPE] |173|  ; [ORIG 16-BIT INS]
     490 0000004a 2102              MOVS      A2, #2                ; [DPU_3_PIPE] |173|  ; [ORIG 16-BIT INS]
     491 0000004c 4603              MOV       A4, A1                ; [DPU_3_PIPE] |173|  ; [ORIG 16-BIT INS]
     492 0000004e 2001              MOVS      A1, #1                ; [DPU_3_PIPE] |173|  ; [ORIG 16-BIT INS]
     493 00000050 4602              MOV       A3, A1                ; [DPU_3_PIPE] |173|  ; [ORIG 16-BIT INS]
     494                    $C$DW$33        .dwtag  DW_TAG_TI_branch
     495                            .dwattr $C$DW$33, DW_AT_low_pc(0x00)
TI ARM Assembler Unix v16.9.0 Mon Apr  3 01:00:07 2017

Tools Copyright (c) 1996-2015 Texas Instruments Incorporated
joystick_draw3.asm                                                   PAGE   10

     496                            .dwattr $C$DW$33, DW_AT_TI_call
     497                            .dwattr $C$DW$33, DW_AT_TI_indirect
     498                    
     499 00000052 4798              BLX       A4                    ; [DPU_3_PIPE] |173|  ; [ORIG 16-BIT INS]
     500                            ; CALL OCCURS {}                 ; [] |173| 
     501                            .dwpsn  file "../joystick_draw3.c",line 174,column 5,is_stmt,isa 1
     502                    ;----------------------------------------------------------------------
     503                    ; 174 | MAP_ADC14_configureConversionMemory(ADC_MEM0,                          
     504                    ; 175 |         ADC_VREFPOS_AVCC_VREFNEG_VSS,                                  
     505                    ; 176 |         ADC_INPUT_A15, ADC_NONDIFFERENTIAL_INPUTS);                    
     506                    ;----------------------------------------------------------------------
     507 00000054 0804F8D4          LDR       A1, [V1, #2052]       ; [DPU_3_PIPE] |174|  ; [KEEP 32-BIT INS]
     508 00000058 6B00              LDR       A1, [A1, #48]         ; [DPU_3_PIPE] |174|  ; [ORIG 16-BIT INS]
     509 0000005a 2100              MOVS      A2, #0                ; [DPU_3_PIPE] |174|  ; [ORIG 16-BIT INS]
     510 0000005c 220F              MOVS      A3, #15               ; [DPU_3_PIPE] |174|  ; [ORIG 16-BIT INS]
     511 0000005e 460B              MOV       A4, A2                ; [DPU_3_PIPE] |174|  ; [ORIG 16-BIT INS]
     512 00000060 4605              MOV       V2, A1                ; [DPU_3_PIPE] |174|  ; [ORIG 16-BIT INS]
     513 00000062 2001              MOVS      A1, #1                ; [DPU_3_PIPE] |174|  ; [ORIG 16-BIT INS]
     514                    $C$DW$34        .dwtag  DW_TAG_TI_branch
     515                            .dwattr $C$DW$34, DW_AT_low_pc(0x00)
     516                            .dwattr $C$DW$34, DW_AT_TI_call
     517                            .dwattr $C$DW$34, DW_AT_TI_indirect
     518                    
     519 00000064 47A8              BLX       V2                    ; [DPU_3_PIPE] |174|  ; [ORIG 16-BIT INS]
     520                            ; CALL OCCURS {}                 ; [] |174| 
     521                            .dwpsn  file "../joystick_draw3.c",line 178,column 5,is_stmt,isa 1
     522                    ;----------------------------------------------------------------------
     523                    ; 178 | MAP_ADC14_configureConversionMemory(ADC_MEM1,                          
     524                    ; 179 |         ADC_VREFPOS_AVCC_VREFNEG_VSS,                                  
     525                    ; 180 |         ADC_INPUT_A9, ADC_NONDIFFERENTIAL_INPUTS);                     
     526                    ; 182 | // Enabling the interrupt when a conversion on channel 1 (end of sequen
     527                    ;     | ce) is complete and enabling conversions                               
     528                    ;----------------------------------------------------------------------
     529 00000066 0804F8D4          LDR       A1, [V1, #2052]       ; [DPU_3_PIPE] |178|  ; [KEEP 32-BIT INS]
     530 0000006a 6B00              LDR       A1, [A1, #48]         ; [DPU_3_PIPE] |178|  ; [ORIG 16-BIT INS]
     531 0000006c 2100              MOVS      A2, #0                ; [DPU_3_PIPE] |178|  ; [ORIG 16-BIT INS]
     532 0000006e 2209              MOVS      A3, #9                ; [DPU_3_PIPE] |178|  ; [ORIG 16-BIT INS]
     533 00000070 460B              MOV       A4, A2                ; [DPU_3_PIPE] |178|  ; [ORIG 16-BIT INS]
     534 00000072 4605              MOV       V2, A1                ; [DPU_3_PIPE] |178|  ; [ORIG 16-BIT INS]
     535 00000074 2002              MOVS      A1, #2                ; [DPU_3_PIPE] |178|  ; [ORIG 16-BIT INS]
     536                    $C$DW$35        .dwtag  DW_TAG_TI_branch
     537                            .dwattr $C$DW$35, DW_AT_low_pc(0x00)
     538                            .dwattr $C$DW$35, DW_AT_TI_call
     539                            .dwattr $C$DW$35, DW_AT_TI_indirect
     540                    
     541 00000076 47A8              BLX       V2                    ; [DPU_3_PIPE] |178|  ; [ORIG 16-BIT INS]
     542                            ; CALL OCCURS {}                 ; [] |178| 
     543                            .dwpsn  file "../joystick_draw3.c",line 183,column 5,is_stmt,isa 1
     544                    ;----------------------------------------------------------------------
     545                    ; 183 | MAP_ADC14_enableInterrupt(ADC_INT1);                                   
     546                    ; 185 | // Enabling Interrupts                                                 
     547                    ;----------------------------------------------------------------------
     548 00000078 0804F8D4          LDR       A1, [V1, #2052]       ; [DPU_3_PIPE] |183|  ; [KEEP 32-BIT INS]
     549 0000007c 6DC0              LDR       A1, [A1, #92]         ; [DPU_3_PIPE] |183|  ; [ORIG 16-BIT INS]
     550 0000007e 2100              MOVS      A2, #0                ; [DPU_3_PIPE] |183|  ; [ORIG 16-BIT INS]
TI ARM Assembler Unix v16.9.0 Mon Apr  3 01:00:07 2017

Tools Copyright (c) 1996-2015 Texas Instruments Incorporated
joystick_draw3.asm                                                   PAGE   11

     551 00000080 4602              MOV       A3, A1                ; [DPU_3_PIPE] |183|  ; [ORIG 16-BIT INS]
     552 00000082 2002              MOVS      A1, #2                ; [DPU_3_PIPE] |183|  ; [ORIG 16-BIT INS]
     553                    $C$DW$36        .dwtag  DW_TAG_TI_branch
     554                            .dwattr $C$DW$36, DW_AT_low_pc(0x00)
     555                            .dwattr $C$DW$36, DW_AT_TI_call
     556                            .dwattr $C$DW$36, DW_AT_TI_indirect
     557                    
     558 00000084 4790              BLX       A3                    ; [DPU_3_PIPE] |183|  ; [ORIG 16-BIT INS]
     559                            ; CALL OCCURS {}                 ; [] |183| 
     560                            .dwpsn  file "../joystick_draw3.c",line 186,column 5,is_stmt,isa 1
     561                    ;----------------------------------------------------------------------
     562                    ; 186 | MAP_Interrupt_enableInterrupt(INT_ADC14);                              
     563                    ;----------------------------------------------------------------------
     564 00000086 082CF8D4          LDR       A1, [V1, #2092]       ; [DPU_3_PIPE] |186|  ; [KEEP 32-BIT INS]
     565 0000008a 6980              LDR       A1, [A1, #24]         ; [DPU_3_PIPE] |186|  ; [ORIG 16-BIT INS]
     566 0000008c 4601              MOV       A2, A1                ; [DPU_3_PIPE] |186|  ; [ORIG 16-BIT INS]
     567 0000008e 2028              MOVS      A1, #40               ; [DPU_3_PIPE] |186|  ; [ORIG 16-BIT INS]
     568                    $C$DW$37        .dwtag  DW_TAG_TI_branch
     569                            .dwattr $C$DW$37, DW_AT_low_pc(0x00)
     570                            .dwattr $C$DW$37, DW_AT_TI_call
     571                            .dwattr $C$DW$37, DW_AT_TI_indirect
     572                    
     573 00000090 4788              BLX       A2                    ; [DPU_3_PIPE] |186|  ; [ORIG 16-BIT INS]
     574                            ; CALL OCCURS {}                 ; [] |186| 
     575                            .dwpsn  file "../joystick_draw3.c",line 187,column 5,is_stmt,isa 1
     576                    ;----------------------------------------------------------------------
     577                    ; 187 | MAP_Interrupt_enableMaster();                                          
     578                    ; 189 | // Setting up the sample timer to automatically step through the sequen
     579                    ;     | ce convert.                                                            
     580                    ;----------------------------------------------------------------------
     581 00000092 082CF8D4          LDR       A1, [V1, #2092]       ; [DPU_3_PIPE] |187|  ; [KEEP 32-BIT INS]
     582 00000096 6800              LDR       A1, [A1, #0]          ; [DPU_3_PIPE] |187|  ; [ORIG 16-BIT INS]
     583                    $C$DW$38        .dwtag  DW_TAG_TI_branch
     584                            .dwattr $C$DW$38, DW_AT_low_pc(0x00)
     585                            .dwattr $C$DW$38, DW_AT_TI_call
     586                            .dwattr $C$DW$38, DW_AT_TI_indirect
     587                    
     588 00000098 4780              BLX       A1                    ; [DPU_3_PIPE] |187|  ; [ORIG 16-BIT INS]
     589                            ; CALL OCCURS {}                 ; [] |187| 
     590                    ;* --------------------------------------------------------------------------*
     591                            .dwpsn  file "../joystick_draw3.c",line 190,column 5,is_stmt,isa 1
     592                    ;----------------------------------------------------------------------
     593                    ; 190 | MAP_ADC14_enableSampleTimer(ADC_AUTOMATIC_ITERATION);                  
     594                    ; 192 | // Triggering the start of the sample                                  
     595                    ;----------------------------------------------------------------------
     596 0000009a 0804F8D4          LDR       A1, [V1, #2052]       ; [DPU_3_PIPE] |190|  ; [KEEP 32-BIT INS]
     597 0000009e 6F40              LDR       A1, [A1, #116]        ; [DPU_3_PIPE] |190|  ; [ORIG 16-BIT INS]
     598 000000a0 4601              MOV       A2, A1                ; [DPU_3_PIPE] |190|  ; [ORIG 16-BIT INS]
     599 000000a2 2080              MOVS      A1, #128              ; [DPU_3_PIPE] |190|  ; [ORIG 16-BIT INS]
     600                    $C$DW$39        .dwtag  DW_TAG_TI_branch
     601                            .dwattr $C$DW$39, DW_AT_low_pc(0x00)
     602                            .dwattr $C$DW$39, DW_AT_TI_call
     603                            .dwattr $C$DW$39, DW_AT_TI_indirect
     604                    
     605 000000a4 4788              BLX       A2                    ; [DPU_3_PIPE] |190|  ; [ORIG 16-BIT INS]
TI ARM Assembler Unix v16.9.0 Mon Apr  3 01:00:07 2017

Tools Copyright (c) 1996-2015 Texas Instruments Incorporated
joystick_draw3.asm                                                   PAGE   12

     606                            ; CALL OCCURS {}                 ; [] |190| 
     607                            .dwpsn  file "../joystick_draw3.c",line 193,column 5,is_stmt,isa 1
     608                    ;----------------------------------------------------------------------
     609                    ; 193 | MAP_ADC14_enableConversion();                                          
     610                    ;----------------------------------------------------------------------
     611 000000a6 0804F8D4          LDR       A1, [V1, #2052]       ; [DPU_3_PIPE] |193|  ; [KEEP 32-BIT INS]
     612 000000aa 6A40              LDR       A1, [A1, #36]         ; [DPU_3_PIPE] |193|  ; [ORIG 16-BIT INS]
     613                    $C$DW$40        .dwtag  DW_TAG_TI_branch
     614                            .dwattr $C$DW$40, DW_AT_low_pc(0x00)
     615                            .dwattr $C$DW$40, DW_AT_TI_call
     616                            .dwattr $C$DW$40, DW_AT_TI_indirect
     617                    
     618 000000ac 4780              BLX       A1                    ; [DPU_3_PIPE] |193|  ; [ORIG 16-BIT INS]
     619                            ; CALL OCCURS {}                 ; [] |193| 
     620                            .dwpsn  file "../joystick_draw3.c",line 194,column 5,is_stmt,isa 1
     621                    ;----------------------------------------------------------------------
     622                    ; 194 | MAP_ADC14_toggleConversionTrigger();                                   
     623                    ;----------------------------------------------------------------------
     624 000000ae 0804F8D4          LDR       A1, [V1, #2052]       ; [DPU_3_PIPE] |194|  ; [KEEP 32-BIT INS]
     625 000000b2 6F00              LDR       A1, [A1, #112]        ; [DPU_3_PIPE] |194|  ; [ORIG 16-BIT INS]
     626                    $C$DW$41        .dwtag  DW_TAG_TI_branch
     627                            .dwattr $C$DW$41, DW_AT_low_pc(0x00)
     628                            .dwattr $C$DW$41, DW_AT_TI_call
     629                            .dwattr $C$DW$41, DW_AT_TI_indirect
     630                    
     631 000000b4 4780              BLX       A1                    ; [DPU_3_PIPE] |194|  ; [ORIG 16-BIT INS]
     632                            ; CALL OCCURS {}                 ; [] |194| 
     633                            .dwpsn  file "../joystick_draw3.c",line 196,column 5,is_stmt,isa 1
     634                    ;----------------------------------------------------------------------
     635                    ; 196 | MAP_Timer_A_configureUpMode(TIMER_A0_BASE, &upConfig);                 
     636                    ; 198 | // configure channels                                                  
     637                    ;----------------------------------------------------------------------
     638 000000b6 0858F8D4          LDR       A1, [V1, #2136]       ; [DPU_3_PIPE] |196|  ; [KEEP 32-BIT INS]
     639 000000ba 4915              LDR       A2, $C$CON3           ; [DPU_3_PIPE] |196|  ; [ORIG 16-BIT INS]
     640 000000bc 6880              LDR       A1, [A1, #8]          ; [DPU_3_PIPE] |196|  ; [ORIG 16-BIT INS]
     641 000000be 4602              MOV       A3, A1                ; [DPU_3_PIPE] |196|  ; [ORIG 16-BIT INS]
     642 000000c0 4080F04F          MOV       A1, #1073741824       ; [DPU_3_PIPE] |196|  ; [KEEP 32-BIT INS]
     643                    $C$DW$42        .dwtag  DW_TAG_TI_branch
     644                            .dwattr $C$DW$42, DW_AT_low_pc(0x00)
     645                            .dwattr $C$DW$42, DW_AT_TI_call
     646                            .dwattr $C$DW$42, DW_AT_TI_indirect
     647                    
     648 000000c4 4790              BLX       A3                    ; [DPU_3_PIPE] |196|  ; [ORIG 16-BIT INS]
     649                            ; CALL OCCURS {}                 ; [] |196| 
     650                            .dwpsn  file "../joystick_draw3.c",line 199,column 5,is_stmt,isa 1
     651                    ;----------------------------------------------------------------------
     652                    ; 199 | MAP_Timer_A_initCompare(TIMER_A0_BASE, &ccr0_Config);                  
     653                    ;----------------------------------------------------------------------
     654 000000c6 0858F8D4          LDR       A1, [V1, #2136]       ; [DPU_3_PIPE] |199|  ; [KEEP 32-BIT INS]
     655 000000ca 4912              LDR       A2, $C$CON4           ; [DPU_3_PIPE] |199|  ; [ORIG 16-BIT INS]
     656 000000cc 6940              LDR       A1, [A1, #20]         ; [DPU_3_PIPE] |199|  ; [ORIG 16-BIT INS]
     657 000000ce 4602              MOV       A3, A1                ; [DPU_3_PIPE] |199|  ; [ORIG 16-BIT INS]
     658 000000d0 4080F04F          MOV       A1, #1073741824       ; [DPU_3_PIPE] |199|  ; [KEEP 32-BIT INS]
     659                    $C$DW$43        .dwtag  DW_TAG_TI_branch
     660                            .dwattr $C$DW$43, DW_AT_low_pc(0x00)
TI ARM Assembler Unix v16.9.0 Mon Apr  3 01:00:07 2017

Tools Copyright (c) 1996-2015 Texas Instruments Incorporated
joystick_draw3.asm                                                   PAGE   13

     661                            .dwattr $C$DW$43, DW_AT_TI_call
     662                            .dwattr $C$DW$43, DW_AT_TI_indirect
     663                    
     664 000000d4 4790              BLX       A3                    ; [DPU_3_PIPE] |199|  ; [ORIG 16-BIT INS]
     665                            ; CALL OCCURS {}                 ; [] |199| 
     666                            .dwpsn  file "../joystick_draw3.c",line 200,column 5,is_stmt,isa 1
     667                    ;----------------------------------------------------------------------
     668                    ; 200 | MAP_Timer_A_initCompare(TIMER_A0_BASE, &ccr4_Config);                  
     669                    ;----------------------------------------------------------------------
     670 000000d6 0858F8D4          LDR       A1, [V1, #2136]       ; [DPU_3_PIPE] |200|  ; [KEEP 32-BIT INS]
     671 000000da 490F              LDR       A2, $C$CON5           ; [DPU_3_PIPE] |200|  ; [ORIG 16-BIT INS]
     672 000000dc 6940              LDR       A1, [A1, #20]         ; [DPU_3_PIPE] |200|  ; [ORIG 16-BIT INS]
     673 000000de 4602              MOV       A3, A1                ; [DPU_3_PIPE] |200|  ; [ORIG 16-BIT INS]
     674 000000e0 4080F04F          MOV       A1, #1073741824       ; [DPU_3_PIPE] |200|  ; [KEEP 32-BIT INS]
     675                    $C$DW$44        .dwtag  DW_TAG_TI_branch
     676                            .dwattr $C$DW$44, DW_AT_low_pc(0x00)
     677                            .dwattr $C$DW$44, DW_AT_TI_call
     678                            .dwattr $C$DW$44, DW_AT_TI_indirect
     679                    
     680 000000e4 4790              BLX       A3                    ; [DPU_3_PIPE] |200|  ; [ORIG 16-BIT INS]
     681                            ; CALL OCCURS {}                 ; [] |200| 
     682                            .dwpsn  file "../joystick_draw3.c",line 203,column 5,is_stmt,isa 1
     683                    ;----------------------------------------------------------------------
     684                    ; 203 | GPIO_setAsPeripheralModuleFunctionOutputPin(GPIO_PORT_P2,GPIO_PIN7,GPIO
     685                    ;     | _PRIMARY_MODULE_FUNCTION);                                             
     686                    ;----------------------------------------------------------------------
     687 000000e6 2002              MOVS      A1, #2                ; [DPU_3_PIPE] |203|  ; [ORIG 16-BIT INS]
     688 000000e8 2180              MOVS      A2, #128              ; [DPU_3_PIPE] |203|  ; [ORIG 16-BIT INS]
     689 000000ea 2201              MOVS      A3, #1                ; [DPU_3_PIPE] |203|  ; [ORIG 16-BIT INS]
     690                    $C$DW$45        .dwtag  DW_TAG_TI_branch
     691                            .dwattr $C$DW$45, DW_AT_low_pc(0x00)
     692                            .dwattr $C$DW$45, DW_AT_name("GPIO_setAsPeripheralModuleFunctionOutputPin")
     693                            .dwattr $C$DW$45, DW_AT_TI_call
     694                    
     695 000000ec FFFEF7FF!         BL        GPIO_setAsPeripheralModuleFunctionOutputPin ; [DPU_3_PIPE] |203|  ; [KEEP 32-BIT INS
     696                            ; CALL OCCURS {GPIO_setAsPeripheralModuleFunctionOutputPin }  ; [] |203| 
     697                            .dwpsn  file "../joystick_draw3.c",line 204,column 5,is_stmt,isa 1
     698                    ;----------------------------------------------------------------------
     699                    ; 204 | MAP_Timer_A_startCounter(TIMER_A0_BASE, TIMER_A_UP_MODE); // start TA0
     700                    ;     | in up mode                                                             
     701                    ;----------------------------------------------------------------------
     702 000000f0 0858F8D4          LDR       A1, [V1, #2136]       ; [DPU_3_PIPE] |204|  ; [KEEP 32-BIT INS]
     703 000000f4 6800              LDR       A1, [A1, #0]          ; [DPU_3_PIPE] |204|  ; [ORIG 16-BIT INS]
     704 000000f6 2110              MOVS      A2, #16               ; [DPU_3_PIPE] |204|  ; [ORIG 16-BIT INS]
     705 000000f8 4602              MOV       A3, A1                ; [DPU_3_PIPE] |204|  ; [ORIG 16-BIT INS]
     706 000000fa 4080F04F          MOV       A1, #1073741824       ; [DPU_3_PIPE] |204|  ; [KEEP 32-BIT INS]
     707                    $C$DW$46        .dwtag  DW_TAG_TI_branch
     708                            .dwattr $C$DW$46, DW_AT_low_pc(0x00)
     709                            .dwattr $C$DW$46, DW_AT_TI_call
     710                            .dwattr $C$DW$46, DW_AT_TI_indirect
     711                    
     712 000000fe 4790              BLX       A3                    ; [DPU_3_PIPE] |204|  ; [ORIG 16-BIT INS]
     713                            ; CALL OCCURS {}                 ; [] |204| 
     714                            .dwpsn  file "../joystick_draw3.c",line 206,column 5,is_stmt,isa 1
     715                    ;----------------------------------------------------------------------
TI ARM Assembler Unix v16.9.0 Mon Apr  3 01:00:07 2017

Tools Copyright (c) 1996-2015 Texas Instruments Incorporated
joystick_draw3.asm                                                   PAGE   14

     716                    ; 206 | MAP_Timer_A_registerInterrupt(TIMER_A0_BASE,TIMER_A_CCR0_INTERRUPT,TA0_
     717                    ;     | 0_Handler);                                                            
     718                    ;----------------------------------------------------------------------
     719 00000100 4A06              LDR       A3, $C$CON6           ; [DPU_3_PIPE] |206|  ; [ORIG 16-BIT INS]
     720 00000102 4080F04F          MOV       A1, #1073741824       ; [DPU_3_PIPE] |206|  ; [KEEP 32-BIT INS]
     721 00000106 2100              MOVS      A2, #0                ; [DPU_3_PIPE] |206|  ; [ORIG 16-BIT INS]
     722                    $C$DW$47        .dwtag  DW_TAG_TI_branch
     723                            .dwattr $C$DW$47, DW_AT_low_pc(0x00)
     724                            .dwattr $C$DW$47, DW_AT_name("Timer_A_registerInterrupt")
     725                            .dwattr $C$DW$47, DW_AT_TI_call
     726                    
     727 00000108 FFFEF7FF!         BL        Timer_A_registerInterrupt ; [DPU_3_PIPE] |206|  ; [KEEP 32-BIT INS]
     728                            ; CALL OCCURS {Timer_A_registerInterrupt }  ; [] |206| 
     729                    $C$DW$48        .dwtag  DW_TAG_TI_branch
     730                            .dwattr $C$DW$48, DW_AT_low_pc(0x00)
     731                            .dwattr $C$DW$48, DW_AT_TI_return
     732                    
     733 0000010c BD38              POP       {A4, V1, V2, PC}      ; [DPU_3_PIPE]  ; [ORIG 16-BIT INS]
     734                            .dwcfi  cfa_offset, 0
     735                            ; BRANCH OCCURS                  ; [] 
     736                            .dwattr $C$DW$28, DW_AT_TI_end_file("../joystick_draw3.c")
     737                            .dwattr $C$DW$28, DW_AT_TI_end_line(0xd0)
     738                            .dwattr $C$DW$28, DW_AT_TI_end_column(0x01)
     739                            .dwendentry
     740                            .dwendtag $C$DW$28
     741                    
     742 00000000                   .sect   ".text:main"
     743                            .clink
     744                            .thumbfunc main
     745 00000000                   .thumb
     746                            .global main
     747                    
     748                    $C$DW$49        .dwtag  DW_TAG_subprogram
     749                            .dwattr $C$DW$49, DW_AT_name("main")
     750                            .dwattr $C$DW$49, DW_AT_low_pc(main)
     751                            .dwattr $C$DW$49, DW_AT_high_pc(0x00)
     752                            .dwattr $C$DW$49, DW_AT_TI_symbol_name("main")
     753                            .dwattr $C$DW$49, DW_AT_external
     754                            .dwattr $C$DW$49, DW_AT_type(*$C$DW$T$10)
     755                            .dwattr $C$DW$49, DW_AT_TI_begin_file("../joystick_draw3.c")
     756                            .dwattr $C$DW$49, DW_AT_TI_begin_line(0x5d)
     757                            .dwattr $C$DW$49, DW_AT_TI_begin_column(0x05)
     758                            .dwattr $C$DW$49, DW_AT_decl_file("../joystick_draw3.c")
     759                            .dwattr $C$DW$49, DW_AT_decl_line(0x5d)
     760                            .dwattr $C$DW$49, DW_AT_decl_column(0x05)
     761                            .dwattr $C$DW$49, DW_AT_TI_max_frame_size(0x10)
     762                            .dwpsn  file "../joystick_draw3.c",line 95,column 1,is_stmt,address main,isa 1
     763                    
     764                            .dwfde $C$DW$CIE, main
     765                    ;----------------------------------------------------------------------
     766                    ;  93 | int main(void)                                                         
     767                    ;----------------------------------------------------------------------
     768                    
     769                    ;*****************************************************************************
     770                    ;* FUNCTION NAME: main                                                       *
TI ARM Assembler Unix v16.9.0 Mon Apr  3 01:00:07 2017

Tools Copyright (c) 1996-2015 Texas Instruments Incorporated
joystick_draw3.asm                                                   PAGE   15

     771                    ;*                                                                           *
     772                    ;*   Regs Modified     : A1,A2,A3,A4,V1,V2,V3,V9,SP,LR,SR,D0,D0_hi,D1,D1_hi, *
     773                    ;*                           D2,D2_hi,D3,D3_hi,D4,D4_hi,D5,D5_hi,D6,D6_hi,D7,*
     774                    ;*                           D7_hi,FPEXC,FPSCR                               *
     775                    ;*   Regs Used         : A1,A2,A3,A4,V1,V2,V3,V9,SP,LR,SR,D0,D0_hi,D1,D1_hi, *
     776                    ;*                           D2,D2_hi,D3,D3_hi,D4,D4_hi,D5,D5_hi,D6,D6_hi,D7,*
     777                    ;*                           D7_hi,FPEXC,FPSCR                               *
     778                    ;*   Local Frame Size  : 0 Args + 0 Auto + 16 Save = 16 byte                 *
     779                    ;*****************************************************************************
     780 00000000           main:
     781                    ;* --------------------------------------------------------------------------*
     782                    ;* V1    assigned to $O$C1
     783                    ;* V1    assigned to $O$K40
     784                    ;* V3    assigned to $O$K45
     785                            .dwcfi  cfa_offset, 0
     786 00000000 B570              PUSH      {V1, V2, V3, LR}      ; [DPU_3_PIPE]  ; [ORIG 16-BIT INS]
     787                            .dwcfi  cfa_offset, 16
     788                            .dwcfi  save_reg_to_mem, 14, -4
     789                            .dwcfi  save_reg_to_mem, 6, -8
     790                            .dwcfi  save_reg_to_mem, 5, -12
     791                            .dwcfi  save_reg_to_mem, 4, -16
     792                            .dwpsn  file "../joystick_draw3.c",line 96,column 5,is_stmt,isa 1
     793                    ;----------------------------------------------------------------------
     794                    ;  96 | MAP_WDT_A_holdTimer(); // stop watchdog timer                          
     795                    ;  98 | // Set DCO speed                                                       
     796                    ;----------------------------------------------------------------------
     797 00000002 7400F04F          MOV       V1, #33554432         ; [DPU_3_PIPE] |96|  ; [KEEP 32-BIT INS]
     798 00000006 0864F8D4          LDR       A1, [V1, #2148]       ; [DPU_3_PIPE] |96|  ; [KEEP 32-BIT INS]
     799 0000000a 6800              LDR       A1, [A1, #0]          ; [DPU_3_PIPE] |96|  ; [ORIG 16-BIT INS]
     800                    $C$DW$50        .dwtag  DW_TAG_TI_branch
     801                            .dwattr $C$DW$50, DW_AT_low_pc(0x00)
     802                            .dwattr $C$DW$50, DW_AT_TI_call
     803                            .dwattr $C$DW$50, DW_AT_TI_indirect
     804                    
     805 0000000c 4780              BLX       A1                    ; [DPU_3_PIPE] |96|  ; [ORIG 16-BIT INS]
     806                            ; CALL OCCURS {}                 ; [] |96| 
     807                            .dwpsn  file "../joystick_draw3.c",line 99,column 5,is_stmt,isa 1
     808                    ;----------------------------------------------------------------------
     809                    ;  99 | MAP_CS_setDCOFrequency(10000000);  // 10MHz                            
     810                    ;----------------------------------------------------------------------
     811 0000000e 0814F8D4          LDR       A1, [V1, #2068]       ; [DPU_3_PIPE] |99|  ; [KEEP 32-BIT INS]
     812 00000012 6B00              LDR       A1, [A1, #48]         ; [DPU_3_PIPE] |99|  ; [ORIG 16-BIT INS]
     813 00000014 4601              MOV       A2, A1                ; [DPU_3_PIPE] |99|  ; [ORIG 16-BIT INS]
     814 00000016 4810              LDR       A1, $C$CON7           ; [DPU_3_PIPE] |99|  ; [ORIG 16-BIT INS]
     815                    $C$DW$51        .dwtag  DW_TAG_TI_branch
     816                            .dwattr $C$DW$51, DW_AT_low_pc(0x00)
     817                            .dwattr $C$DW$51, DW_AT_TI_call
     818                            .dwattr $C$DW$51, DW_AT_TI_indirect
     819                    
     820 00000018 4788              BLX       A2                    ; [DPU_3_PIPE] |99|  ; [ORIG 16-BIT INS]
     821                            ; CALL OCCURS {}                 ; [] |99| 
     822                            .dwpsn  file "../joystick_draw3.c",line 101,column 5,is_stmt,isa 1
     823                    ;----------------------------------------------------------------------
     824                    ; 101 | init_timer();                                                          
     825                    ;----------------------------------------------------------------------
TI ARM Assembler Unix v16.9.0 Mon Apr  3 01:00:07 2017

Tools Copyright (c) 1996-2015 Texas Instruments Incorporated
joystick_draw3.asm                                                   PAGE   16

     826                    $C$DW$52        .dwtag  DW_TAG_TI_branch
     827                            .dwattr $C$DW$52, DW_AT_low_pc(0x00)
     828                            .dwattr $C$DW$52, DW_AT_name("init_timer")
     829                            .dwattr $C$DW$52, DW_AT_TI_call
     830                    
     831 0000001a FFFEF7FF!         BL        init_timer            ; [DPU_3_PIPE] |101|  ; [KEEP 32-BIT INS]
     832                            ; CALL OCCURS {init_timer }      ; [] |101| 
     833                            .dwpsn  file "../joystick_draw3.c",line 103,column 5,is_stmt,isa 1
     834                    ;----------------------------------------------------------------------
     835                    ; 103 | counter = AUDIO_COUNT;                                                 
     836                    ;----------------------------------------------------------------------
     837 0000001e 4911              LDR       A2, $C$CON12          ; [DPU_3_PIPE] |103|  ; [ORIG 16-BIT INS]
     838                            .dwpsn  file "../joystick_draw3.c",line 105,column 5,is_stmt,isa 1
     839                    ;----------------------------------------------------------------------
     840                    ; 105 | MAP_Interrupt_disableSleepOnIsrExit();   // Specify that after an inter
     841                    ;     | rupt, the CPU wakes up                                                 
     842                    ;----------------------------------------------------------------------
     843 00000020 082CF8D4          LDR       A1, [V1, #2092]       ; [DPU_3_PIPE] |105|  ; [KEEP 32-BIT INS]
     844                            .dwpsn  file "../joystick_draw3.c",line 103,column 5,is_stmt,isa 1
     845 00000024 2232              MOVS      A3, #50               ; [DPU_3_PIPE] |103|  ; [ORIG 16-BIT INS]
     846                            .dwpsn  file "../joystick_draw3.c",line 105,column 5,is_stmt,isa 1
     847 00000026 6BC0              LDR       A1, [A1, #60]         ; [DPU_3_PIPE] |105|  ; [ORIG 16-BIT INS]
     848                            .dwpsn  file "../joystick_draw3.c",line 103,column 5,is_stmt,isa 1
     849 00000028 600A              STR       A3, [A2, #0]          ; [DPU_3_PIPE] |103|  ; [ORIG 16-BIT INS]
     850                            .dwpsn  file "../joystick_draw3.c",line 105,column 5,is_stmt,isa 1
     851                    $C$DW$53        .dwtag  DW_TAG_TI_branch
     852                            .dwattr $C$DW$53, DW_AT_low_pc(0x00)
     853                            .dwattr $C$DW$53, DW_AT_TI_call
     854                            .dwattr $C$DW$53, DW_AT_TI_indirect
     855                    
     856 0000002a 4780              BLX       A1                    ; [DPU_3_PIPE] |105|  ; [ORIG 16-BIT INS]
     857                            ; CALL OCCURS {}                 ; [] |105| 
     858                            .dwpsn  file "../joystick_draw3.c",line 107,column 5,is_stmt,isa 1
     859                    ;----------------------------------------------------------------------
     860                    ; 107 | MAP_Interrupt_enableMaster();// unmask IRQ interrupts to allow the CPU
     861                    ;     | to respond.                                                            
     862                    ; 109 | while(1)                                                               
     863                    ;----------------------------------------------------------------------
     864 0000002c 082CF8D4          LDR       A1, [V1, #2092]       ; [DPU_3_PIPE] |107|  ; [KEEP 32-BIT INS]
     865 00000030 6800              LDR       A1, [A1, #0]          ; [DPU_3_PIPE] |107|  ; [ORIG 16-BIT INS]
     866                    $C$DW$54        .dwtag  DW_TAG_TI_branch
     867                            .dwattr $C$DW$54, DW_AT_low_pc(0x00)
     868                            .dwattr $C$DW$54, DW_AT_TI_call
     869                            .dwattr $C$DW$54, DW_AT_TI_indirect
     870                    
     871 00000032 4780              BLX       A1                    ; [DPU_3_PIPE] |107|  ; [ORIG 16-BIT INS]
     872                            ; CALL OCCURS {}                 ; [] |107| 
     873                            .dwpsn  file "../joystick_draw3.c",line 112,column 9,is_stmt,isa 1
     874                    ;----------------------------------------------------------------------
     875                    ; 112 | MAP_PCM_gotoLPM0(); // Low power mode with CPU powered off             
     876                    ; 113 | __no_operation(); //  For debugger                                     
     877                    ;----------------------------------------------------------------------
     878 00000034 4D0C              LDR       V2, $C$CON13          ; [DPU_3_PIPE] |112|  ; [ORIG 16-BIT INS]
     879 00000036 4C09              LDR       V1, $C$CON9           ; [DPU_3_PIPE]  ; [ORIG 16-BIT INS]
     880 00000038 2600              MOVS      V3, #0                ; [DPU_3_PIPE]  ; [ORIG 16-BIT INS]
TI ARM Assembler Unix v16.9.0 Mon Apr  3 01:00:07 2017

Tools Copyright (c) 1996-2015 Texas Instruments Incorporated
joystick_draw3.asm                                                   PAGE   17

     881                    ;* --------------------------------------------------------------------------*
     882                    ;*   BEGIN LOOP ||$C$L2||
     883                    ;*
     884                    ;*   Loop source line                : 109
     885                    ;*   Loop closing brace source line  : 124
     886                    ;*   Known Minimum Trip Count        : 1
     887                    ;*   Known Maximum Trip Count        : 4294967295
     888                    ;*   Known Max Trip Count Factor     : 1
     889                    ;* --------------------------------------------------------------------------*
     890 0000003a           ||$C$L2||:    
     891 0000003a 0024F1A5          SUB       A1, V2, #36           ; [DPU_3_PIPE]  ; [KEEP 32-BIT INS]
     892 0000003e 6800              LDR       A1, [A1, #0]          ; [DPU_3_PIPE] |112|  ; [ORIG 16-BIT INS]
     893 00000040 6A80              LDR       A1, [A1, #40]         ; [DPU_3_PIPE] |112|  ; [ORIG 16-BIT INS]
     894                    $C$DW$55        .dwtag  DW_TAG_TI_branch
     895                            .dwattr $C$DW$55, DW_AT_low_pc(0x00)
     896                            .dwattr $C$DW$55, DW_AT_TI_call
     897                            .dwattr $C$DW$55, DW_AT_TI_indirect
     898                    
     899 00000042 4780              BLX       A1                    ; [DPU_3_PIPE] |112|  ; [ORIG 16-BIT INS]
     900                            ; CALL OCCURS {}                 ; [] |112| 
     901 00000044 BF00        nop ; [ORIG 16-BIT INS]
     902                            .dwpsn  file "../joystick_draw3.c",line 114,column 9,is_stmt,isa 1
     903                    ;----------------------------------------------------------------------
     904                    ; 114 | if (print_flag)                                                        
     905                    ; 116 |             print_flag=0;                                              
     906                    ; 117 |             //dotcolor=buttonPressed ? DOTCOL_PRESSED: DOTCOL;         
     907                    ; 118 |             //xdisplay=resultsBuffer[0]/128;                           
     908                    ; 119 |             //ydisplay=127-resultsBuffer[1]/128;                       
     909                    ;----------------------------------------------------------------------
     910 00000046 8820              LDRH      A1, [V1, #0]          ; [DPU_3_PIPE] |114|  ; [ORIG 16-BIT INS]
     911 00000048 2800              CMP       A1, #0                ; [DPU_3_PIPE] |114|  ; [ORIG 16-BIT INS]
     912 0000004a D0F6              BEQ       ||$C$L2||             ; [DPU_3_PIPE] |114|  ; [ORIG 16-BIT INS]
     913                            ; BRANCHCC OCCURS {||$C$L2||}    ; [] |114| 
     914                    ;* --------------------------------------------------------------------------*
     915                            .dwpsn  file "../joystick_draw3.c",line 121,column 21,is_stmt,isa 1
     916                    ;----------------------------------------------------------------------
     917                    ; 121 | print_current_results(resultsBuffer);                                  
     918                    ;----------------------------------------------------------------------
     919 0000004c 4804              LDR       A1, $C$CON11          ; [DPU_3_PIPE] |121|  ; [ORIG 16-BIT INS]
     920                            .dwpsn  file "../joystick_draw3.c",line 116,column 21,is_stmt,isa 1
     921 0000004e 8026              STRH      V3, [V1, #0]          ; [DPU_3_PIPE] |116|  ; [ORIG 16-BIT INS]
     922                            .dwpsn  file "../joystick_draw3.c",line 121,column 21,is_stmt,isa 1
     923                    ;----------------------------------------------------------------------
     924                    ; 122 | //put_dot(xdisplay,ydisplay,dotcolor);                                 
     925                    ;----------------------------------------------------------------------
     926                    $C$DW$56        .dwtag  DW_TAG_TI_branch
     927                            .dwattr $C$DW$56, DW_AT_low_pc(0x00)
     928                            .dwattr $C$DW$56, DW_AT_name("print_current_results")
     929                            .dwattr $C$DW$56, DW_AT_TI_call
     930                    
     931 00000050 FFFEF7FF!         BL        print_current_results ; [DPU_3_PIPE] |121|  ; [KEEP 32-BIT INS]
     932                            ; CALL OCCURS {print_current_results }  ; [] |121| 
     933 00000054 E7F1              B         ||$C$L2||             ; [DPU_3_PIPE] |121|  ; [ORIG 16-BIT INS]
     934                            ; BRANCH OCCURS {||$C$L2||}      ; [] |121| 
     935                    ;* --------------------------------------------------------------------------*
TI ARM Assembler Unix v16.9.0 Mon Apr  3 01:00:07 2017

Tools Copyright (c) 1996-2015 Texas Instruments Incorporated
joystick_draw3.asm                                                   PAGE   18

     936                            .dwattr $C$DW$49, DW_AT_TI_end_file("../joystick_draw3.c")
     937                            .dwattr $C$DW$49, DW_AT_TI_end_line(0x7d)
     938                            .dwattr $C$DW$49, DW_AT_TI_end_column(0x01)
     939                            .dwendentry
     940                            .dwendtag $C$DW$49
     941                    
     942 00000000                   .sect   ".text:ADC14_IRQHandler"
     943                            .clink
     944                            .thumbfunc ADC14_IRQHandler
     945 00000000                   .thumb
     946                            .global ADC14_IRQHandler
     947                    
     948                    $C$DW$57        .dwtag  DW_TAG_subprogram
     949                            .dwattr $C$DW$57, DW_AT_name("ADC14_IRQHandler")
     950                            .dwattr $C$DW$57, DW_AT_low_pc(ADC14_IRQHandler)
     951                            .dwattr $C$DW$57, DW_AT_high_pc(0x00)
     952                            .dwattr $C$DW$57, DW_AT_TI_symbol_name("ADC14_IRQHandler")
     953                            .dwattr $C$DW$57, DW_AT_external
     954                            .dwattr $C$DW$57, DW_AT_TI_begin_file("../joystick_draw3.c")
     955                            .dwattr $C$DW$57, DW_AT_TI_begin_line(0xe1)
     956                            .dwattr $C$DW$57, DW_AT_TI_begin_column(0x06)
     957                            .dwattr $C$DW$57, DW_AT_decl_file("../joystick_draw3.c")
     958                            .dwattr $C$DW$57, DW_AT_decl_line(0xe1)
     959                            .dwattr $C$DW$57, DW_AT_decl_column(0x06)
     960                            .dwattr $C$DW$57, DW_AT_TI_max_frame_size(0x18)
     961                            .dwpsn  file "../joystick_draw3.c",line 226,column 1,is_stmt,address ADC14_IRQHandler,isa 1
     962                    
     963                            .dwfde $C$DW$CIE, ADC14_IRQHandler
     964                    ;----------------------------------------------------------------------
     965                    ; 225 | void ADC14_IRQHandler(void)                                            
     966                    ; 227 | uint64_t status;                                                       
     967                    ;----------------------------------------------------------------------
     968                    
     969                    ;*****************************************************************************
     970                    ;* FUNCTION NAME: ADC14_IRQHandler                                           *
     971                    ;*                                                                           *
     972                    ;*   Regs Modified     : A1,A2,A3,A4,V1,V2,V3,V4,V5,V9,SP,LR,SR,D0,D0_hi,D1, *
     973                    ;*                           D1_hi,D2,D2_hi,D3,D3_hi,D4,D4_hi,D5,D5_hi,D6,   *
     974                    ;*                           D6_hi,D7,D7_hi,FPEXC,FPSCR                      *
     975                    ;*   Regs Used         : A1,A2,A3,A4,V1,V2,V3,V4,V5,V9,SP,LR,SR,D0,D0_hi,D1, *
     976                    ;*                           D1_hi,D2,D2_hi,D3,D3_hi,D4,D4_hi,D5,D5_hi,D6,   *
     977                    ;*                           D6_hi,D7,D7_hi,FPEXC,FPSCR                      *
     978                    ;*   Local Frame Size  : 0 Args + 0 Auto + 24 Save = 24 byte                 *
     979                    ;*****************************************************************************
     980 00000000           ADC14_IRQHandler:
     981                    ;* --------------------------------------------------------------------------*
     982                    ;* A2    assigned to $O$C1
     983                    ;* V1    assigned to $O$C2
     984                    ;* V2    assigned to $O$C3
     985                    ;* A1    assigned to $O$v1
     986                    ;* V1    assigned to $O$v1
     987                    ;* A2    assigned to $O$K34
     988                    ;* V4    assigned to $O$K23
     989                    ;* V2    assigned to $O$K30
     990                    ;* V1    assigned to $O$K40
TI ARM Assembler Unix v16.9.0 Mon Apr  3 01:00:07 2017

Tools Copyright (c) 1996-2015 Texas Instruments Incorporated
joystick_draw3.asm                                                   PAGE   19

     991                    ;* V2    assigned to $O$K52
     992                    ;* V3    assigned to $O$K2
     993                            .dwcfi  cfa_offset, 0
     994 00000000 41F0E92D          PUSH      {V1, V2, V3, V4, V5, LR} ; [DPU_3_PIPE]  ; [KEEP 32-BIT INS]
     995                            .dwcfi  cfa_offset, 24
     996                            .dwcfi  save_reg_to_mem, 14, -4
     997                            .dwcfi  save_reg_to_mem, 8, -8
     998                            .dwcfi  save_reg_to_mem, 7, -12
     999                            .dwcfi  save_reg_to_mem, 6, -16
    1000                            .dwcfi  save_reg_to_mem, 5, -20
    1001                            .dwcfi  save_reg_to_mem, 4, -24
    1002                            .dwpsn  file "../joystick_draw3.c",line 230,column 5,is_stmt,isa 1
    1003                    ;----------------------------------------------------------------------
    1004                    ; 230 | status = MAP_ADC14_getEnabledInterruptStatus();                        
    1005                    ;----------------------------------------------------------------------
    1006 00000004 4E4D              LDR       V3, $C$CON14          ; [DPU_3_PIPE] |230|  ; [ORIG 16-BIT INS]
    1007 00000006 6830              LDR       A1, [V3, #0]          ; [DPU_3_PIPE] |230|  ; [ORIG 16-BIT INS]
    1008 00000008 6E80              LDR       A1, [A1, #104]        ; [DPU_3_PIPE] |230|  ; [ORIG 16-BIT INS]
    1009                    $C$DW$58        .dwtag  DW_TAG_TI_branch
    1010                            .dwattr $C$DW$58, DW_AT_low_pc(0x00)
    1011                            .dwattr $C$DW$58, DW_AT_TI_call
    1012                            .dwattr $C$DW$58, DW_AT_TI_indirect
    1013                    
    1014 0000000a 4780              BLX       A1                    ; [DPU_3_PIPE] |230|  ; [ORIG 16-BIT INS]
    1015                            ; CALL OCCURS {}                 ; [] |230| 
    1016                            .dwpsn  file "../joystick_draw3.c",line 231,column 5,is_stmt,isa 1
    1017                    ;----------------------------------------------------------------------
    1018                    ; 231 | MAP_ADC14_clearInterruptFlag(status);                                  
    1019                    ;----------------------------------------------------------------------
    1020 0000000c 6832              LDR       A3, [V3, #0]          ; [DPU_3_PIPE] |231|  ; [ORIG 16-BIT INS]
    1021 0000000e 6ED2              LDR       A3, [A3, #108]        ; [DPU_3_PIPE] |231|  ; [ORIG 16-BIT INS]
    1022                            .dwpsn  file "../joystick_draw3.c",line 230,column 5,is_stmt,isa 1
    1023 00000010 460C              MOV       V1, A2                ; [DPU_3_PIPE] |230|  ; [ORIG 16-BIT INS]
    1024 00000012 4605              MOV       V2, A1                ; [DPU_3_PIPE] |230|  ; [ORIG 16-BIT INS]
    1025                            .dwpsn  file "../joystick_draw3.c",line 231,column 5,is_stmt,isa 1
    1026                    $C$DW$59        .dwtag  DW_TAG_TI_branch
    1027                            .dwattr $C$DW$59, DW_AT_low_pc(0x00)
    1028                            .dwattr $C$DW$59, DW_AT_TI_call
    1029                            .dwattr $C$DW$59, DW_AT_TI_indirect
    1030                    
    1031 00000014 4790              BLX       A3                    ; [DPU_3_PIPE] |231|  ; [ORIG 16-BIT INS]
    1032                            ; CALL OCCURS {}                 ; [] |231| 
    1033                            .dwpsn  file "../joystick_draw3.c",line 237,column 17,is_stmt,isa 1
    1034                    ;----------------------------------------------------------------------
    1035                    ; 237 | if(status & ADC_INT1)                                                  
    1036                    ;----------------------------------------------------------------------
    1037 00000016 0802F04F          MOV       V5, #2                ; [DPU_3_PIPE] |237|  ; [KEEP 32-BIT INS]
    1038 0000001a 2000              MOVS      A1, #0                ; [DPU_3_PIPE] |237|  ; [ORIG 16-BIT INS]
    1039 0000001c 0704EA00          AND       V4, A1, V1            ; [DPU_3_PIPE] |237|  ; [KEEP 32-BIT INS]
    1040 00000020 0105EA08          AND       A2, V5, V2            ; [DPU_3_PIPE] |237|  ; [KEEP 32-BIT INS]
    1041 00000024 2F00              CMP       V4, #0                ; [DPU_3_PIPE] |237|  ; [ORIG 16-BIT INS]
    1042 00000026 BF08              IT        EQ                    ; [DPU_3_PIPE]  ; [ORIG 16-BIT INS]
    1043 00000028 2900              CMPEQ     A2, #0                ; [DPU_3_PIPE] |237|  ; [ORIG 16-BIT INS]
    1044 0000002a D06B              BEQ       ||$C$L5||             ; [DPU_3_PIPE] |237|  ; [ORIG 16-BIT INS]
    1045                            ; BRANCHCC OCCURS {||$C$L5||}    ; [] |237| 
TI ARM Assembler Unix v16.9.0 Mon Apr  3 01:00:07 2017

Tools Copyright (c) 1996-2015 Texas Instruments Incorporated
joystick_draw3.asm                                                   PAGE   20

    1046                    ;* --------------------------------------------------------------------------*
    1047                            .dwpsn  file "../joystick_draw3.c",line 242,column 21,is_stmt,isa 1
    1048                    ;----------------------------------------------------------------------
    1049                    ; 242 | buttonPressed = (P4IN & GPIO_PIN1)?0:1;                                
    1050                    ;----------------------------------------------------------------------
    1051 0000002c 4F44              LDR       V4, $C$CON15          ; [DPU_3_PIPE] |242|  ; [ORIG 16-BIT INS]
    1052 0000002e 7839              LDRB      A2, [V4, #0]          ; [DPU_3_PIPE] |242|  ; [ORIG 16-BIT INS]
    1053 00000030 4D44              LDR       V2, $C$CON16          ; [DPU_3_PIPE] |242|  ; [ORIG 16-BIT INS]
    1054 00000032 104C              ASRS      V1, A2, #1            ; [DPU_3_PIPE] |242|  ; [ORIG 16-BIT INS]
    1055 00000034 0401F084          EOR       V1, V1, #1            ; [DPU_3_PIPE] |242|  ; [KEEP 32-BIT INS]
    1056 00000038 0401F014          ANDS      V1, V1, #1            ; [DPU_3_PIPE] |242|  ; [KEEP 32-BIT INS]
    1057 0000003c 802C              STRH      V1, [V2, #0]          ; [DPU_3_PIPE] |242|  ; [ORIG 16-BIT INS]
    1058                            .dwpsn  file "../joystick_draw3.c",line 243,column 21,is_stmt,isa 1
    1059                    ;----------------------------------------------------------------------
    1060                    ; 243 | if (buttonPressed)                                                     
    1061                    ;----------------------------------------------------------------------
    1062 0000003e D009              BEQ       ||$C$L3||             ; [DPU_3_PIPE] |243|  ; [ORIG 16-BIT INS]
    1063                            ; BRANCHCC OCCURS {||$C$L3||}    ; [] |243| 
    1064                    ;* --------------------------------------------------------------------------*
    1065                            .dwpsn  file "../joystick_draw3.c",line 246,column 25,is_stmt,isa 1
    1066                    ;----------------------------------------------------------------------
    1067                    ; 246 | if(state == 1) state =0;                                               
    1068                    ;----------------------------------------------------------------------
    1069 00000040 4941              LDR       A2, $C$CON17          ; [DPU_3_PIPE] |246|  ; [ORIG 16-BIT INS]
    1070 00000042 680A              LDR       A3, [A2, #0]          ; [DPU_3_PIPE] |246|  ; [ORIG 16-BIT INS]
    1071 00000044 2A01              CMP       A3, #1                ; [DPU_3_PIPE] |246|  ; [ORIG 16-BIT INS]
    1072 00000046 BF18              IT        NE                    ; [DPU_3_PIPE]  ; [ORIG 16-BIT INS]
    1073                            .dwpsn  file "../joystick_draw3.c",line 247,column 30,is_stmt,isa 1
    1074                    ;----------------------------------------------------------------------
    1075                    ; 247 | else state = 1;                                                        
    1076                    ;----------------------------------------------------------------------
    1077 00000048 2001              MOVNE     A1, #1                ; [DPU_3_PIPE] |247|  ; [ORIG 16-BIT INS]
    1078                            .dwpsn  file "../joystick_draw3.c",line 246,column 40,is_stmt,isa 1
    1079 0000004a 6008              STR       A1, [A2, #0]          ; [DPU_3_PIPE] |246|  ; [ORIG 16-BIT INS]
    1080                            .dwpsn  file "../joystick_draw3.c",line 249,column 25,is_stmt,isa 1
    1081                    ;----------------------------------------------------------------------
    1082                    ; 249 | printf("%d",state);                                                    
    1083                    ; 250 | //print_flag=1;  // signal main to refresh the display                 
    1084                    ;----------------------------------------------------------------------
    1085 0000004c 6809              LDR       A2, [A2, #0]          ; [DPU_3_PIPE] |249|  ; [ORIG 16-BIT INS]
    1086 0000004e A02E              ADR       A1, $C$SL1            ; [DPU_3_PIPE] |249|  ; [ORIG 16-BIT INS]
    1087                    $C$DW$60        .dwtag  DW_TAG_TI_branch
    1088                            .dwattr $C$DW$60, DW_AT_low_pc(0x00)
    1089                            .dwattr $C$DW$60, DW_AT_name("printf")
    1090                            .dwattr $C$DW$60, DW_AT_TI_call
    1091                    
    1092 00000050 FFFEF7FF!         BL        printf                ; [DPU_3_PIPE] |249|  ; [KEEP 32-BIT INS]
    1093                            ; CALL OCCURS {printf }          ; [] |249| 
    1094                    ;* --------------------------------------------------------------------------*
    1095 00000054           ||$C$L3||:    
    1096                            .dwpsn  file "../joystick_draw3.c",line 259,column 21,is_stmt,isa 1
    1097                    ;----------------------------------------------------------------------
    1098                    ; 259 | resultsBuffer[0] = ADC14_getResult(ADC_MEM0);                          
    1099                    ;----------------------------------------------------------------------
    1100 00000054 2001              MOVS      A1, #1                ; [DPU_3_PIPE] |259|  ; [ORIG 16-BIT INS]
TI ARM Assembler Unix v16.9.0 Mon Apr  3 01:00:07 2017

Tools Copyright (c) 1996-2015 Texas Instruments Incorporated
joystick_draw3.asm                                                   PAGE   21

    1101                    $C$DW$61        .dwtag  DW_TAG_TI_branch
    1102                            .dwattr $C$DW$61, DW_AT_low_pc(0x00)
    1103                            .dwattr $C$DW$61, DW_AT_name("ADC14_getResult")
    1104                            .dwattr $C$DW$61, DW_AT_TI_call
    1105                    
    1106 00000056 FFFEF7FF!         BL        ADC14_getResult       ; [DPU_3_PIPE] |259|  ; [KEEP 32-BIT INS]
    1107                            ; CALL OCCURS {ADC14_getResult }  ; [] |259| 
    1108 0000005a 4C3F              LDR       V1, $C$CON22          ; [DPU_3_PIPE] |259|  ; [ORIG 16-BIT INS]
    1109 0000005c 6020              STR       A1, [V1, #0]          ; [DPU_3_PIPE] |259|  ; [ORIG 16-BIT INS]
    1110 0000005e 4640              MOV       A1, V5                ; [DPU_3_PIPE] |259|  ; [ORIG 16-BIT INS]
    1111                            .dwpsn  file "../joystick_draw3.c",line 260,column 21,is_stmt,isa 1
    1112                    ;----------------------------------------------------------------------
    1113                    ; 260 | resultsBuffer[1] = ADC14_getResult(ADC_MEM1);                          
    1114                    ;----------------------------------------------------------------------
    1115                    $C$DW$62        .dwtag  DW_TAG_TI_branch
    1116                            .dwattr $C$DW$62, DW_AT_low_pc(0x00)
    1117                            .dwattr $C$DW$62, DW_AT_name("ADC14_getResult")
    1118                            .dwattr $C$DW$62, DW_AT_TI_call
    1119                    
    1120 00000060 FFFEF7FF!         BL        ADC14_getResult       ; [DPU_3_PIPE] |260|  ; [KEEP 32-BIT INS]
    1121                            ; CALL OCCURS {ADC14_getResult }  ; [] |260| 
    1122 00000064 6060              STR       A1, [V1, #4]          ; [DPU_3_PIPE] |260|  ; [ORIG 16-BIT INS]
    1123                            .dwpsn  file "../joystick_draw3.c",line 263,column 25,is_stmt,isa 1
    1124                    ;----------------------------------------------------------------------
    1125                    ; 263 | buttonPressed = (P4IN & GPIO_PIN1)?0:1;                                
    1126                    ; 265 | // set frequency                                                       
    1127                    ;----------------------------------------------------------------------
    1128 00000066 7838              LDRB      A1, [V4, #0]          ; [DPU_3_PIPE] |263|  ; [ORIG 16-BIT INS]
    1129 00000068 1040              ASRS      A1, A1, #1            ; [DPU_3_PIPE] |263|  ; [ORIG 16-BIT INS]
    1130 0000006a 0001F080          EOR       A1, A1, #1            ; [DPU_3_PIPE] |263|  ; [KEEP 32-BIT INS]
    1131 0000006e 0001F000          AND       A1, A1, #1            ; [DPU_3_PIPE] |263|  ; [KEEP 32-BIT INS]
    1132 00000072 8028              STRH      A1, [V2, #0]          ; [DPU_3_PIPE] |263|  ; [ORIG 16-BIT INS]
    1133                            .dwpsn  file "../joystick_draw3.c",line 266,column 21,is_stmt,isa 1
    1134                    ;----------------------------------------------------------------------
    1135                    ; 266 | frequency = 1/((0.5*(resultsBuffer[0]))+300)*1000000;                  
    1136                    ;----------------------------------------------------------------------
    1137 00000074 6820              LDR       A1, [V1, #0]          ; [DPU_3_PIPE] |266|  ; [ORIG 16-BIT INS]
    1138                    $C$DW$63        .dwtag  DW_TAG_TI_branch
    1139                            .dwattr $C$DW$63, DW_AT_low_pc(0x00)
    1140                            .dwattr $C$DW$63, DW_AT_name("__aeabi_ui2d")
    1141                            .dwattr $C$DW$63, DW_AT_TI_call
    1142                    
    1143 00000076 FFFEF7FF!         BL        __aeabi_ui2d          ; [DPU_3_PIPE] |266|  ; [KEEP 32-BIT INS]
    1144                            ; CALL OCCURS {__aeabi_ui2d }    ; [] |266| 
    1145 0000007a A224              ADR       A3, $C$FL1            ; [DPU_3_PIPE] |266|  ; [ORIG 16-BIT INS]
    1146 0000007c CA0C              LDMIA     A3, {A3,A4}           ; [DPU_3_PIPE] |266|  ; [ORIG 16-BIT INS]
    1147                    $C$DW$64        .dwtag  DW_TAG_TI_branch
    1148                            .dwattr $C$DW$64, DW_AT_low_pc(0x00)
    1149                            .dwattr $C$DW$64, DW_AT_name("__aeabi_dmul")
    1150                            .dwattr $C$DW$64, DW_AT_TI_call
    1151                    
    1152 0000007e FFFEF7FF!         BL        __aeabi_dmul          ; [DPU_3_PIPE] |266|  ; [KEEP 32-BIT INS]
    1153                            ; CALL OCCURS {__aeabi_dmul }    ; [] |266| 
    1154 00000082 A224              ADR       A3, $C$FL2            ; [DPU_3_PIPE] |266|  ; [ORIG 16-BIT INS]
    1155 00000084 CA0C              LDMIA     A3, {A3,A4}           ; [DPU_3_PIPE] |266|  ; [ORIG 16-BIT INS]
TI ARM Assembler Unix v16.9.0 Mon Apr  3 01:00:07 2017

Tools Copyright (c) 1996-2015 Texas Instruments Incorporated
joystick_draw3.asm                                                   PAGE   22

    1156                    $C$DW$65        .dwtag  DW_TAG_TI_branch
    1157                            .dwattr $C$DW$65, DW_AT_low_pc(0x00)
    1158                            .dwattr $C$DW$65, DW_AT_name("__aeabi_dadd")
    1159                            .dwattr $C$DW$65, DW_AT_TI_call
    1160                    
    1161 00000086 FFFEF7FF!         BL        __aeabi_dadd          ; [DPU_3_PIPE] |266|  ; [KEEP 32-BIT INS]
    1162                            ; CALL OCCURS {__aeabi_dadd }    ; [] |266| 
    1163 0000008a 4602              MOV       A3, A1                ; [DPU_3_PIPE] |266|  ; [ORIG 16-BIT INS]
    1164 0000008c 460B              MOV       A4, A2                ; [DPU_3_PIPE] |266|  ; [ORIG 16-BIT INS]
    1165 0000008e A023              ADR       A1, $C$FL3            ; [DPU_3_PIPE] |266|  ; [ORIG 16-BIT INS]
    1166 00000090 C803              LDMIA     A1, {A1,A2}           ; [DPU_3_PIPE] |266|  ; [ORIG 16-BIT INS]
    1167                    $C$DW$66        .dwtag  DW_TAG_TI_branch
    1168                            .dwattr $C$DW$66, DW_AT_low_pc(0x00)
    1169                            .dwattr $C$DW$66, DW_AT_name("__aeabi_ddiv")
    1170                            .dwattr $C$DW$66, DW_AT_TI_call
    1171                    
    1172 00000092 FFFEF7FF!         BL        __aeabi_ddiv          ; [DPU_3_PIPE] |266|  ; [KEEP 32-BIT INS]
    1173                            ; CALL OCCURS {__aeabi_ddiv }    ; [] |266| 
    1174 00000096 A223              ADR       A3, $C$FL4            ; [DPU_3_PIPE] |266|  ; [ORIG 16-BIT INS]
    1175 00000098 CA0C              LDMIA     A3, {A3,A4}           ; [DPU_3_PIPE] |266|  ; [ORIG 16-BIT INS]
    1176                    $C$DW$67        .dwtag  DW_TAG_TI_branch
    1177                            .dwattr $C$DW$67, DW_AT_low_pc(0x00)
    1178                            .dwattr $C$DW$67, DW_AT_name("__aeabi_dmul")
    1179                            .dwattr $C$DW$67, DW_AT_TI_call
    1180                    
    1181 0000009a FFFEF7FF!         BL        __aeabi_dmul          ; [DPU_3_PIPE] |266|  ; [KEEP 32-BIT INS]
    1182                            ; CALL OCCURS {__aeabi_dmul }    ; [] |266| 
    1183                    $C$DW$68        .dwtag  DW_TAG_TI_branch
    1184                            .dwattr $C$DW$68, DW_AT_low_pc(0x00)
    1185                            .dwattr $C$DW$68, DW_AT_name("__aeabi_d2uiz")
    1186                            .dwattr $C$DW$68, DW_AT_TI_call
    1187                    
    1188 0000009e FFFEF7FF!         BL        __aeabi_d2uiz         ; [DPU_3_PIPE] |266|  ; [KEEP 32-BIT INS]
    1189                            ; CALL OCCURS {__aeabi_d2uiz }   ; [] |266| 
    1190 000000a2 4D2A              LDR       V2, $C$CON19          ; [DPU_3_PIPE] |266|  ; [ORIG 16-BIT INS]
    1191 000000a4 6028              STR       A1, [V2, #0]          ; [DPU_3_PIPE] |266|  ; [ORIG 16-BIT INS]
    1192                            .dwpsn  file "../joystick_draw3.c",line 267,column 21,is_stmt,isa 1
    1193                    ;----------------------------------------------------------------------
    1194                    ; 267 | if (frequency>687){ // offset functionality                            
    1195                    ;----------------------------------------------------------------------
    1196 000000a6 6828              LDR       A1, [V2, #0]          ; [DPU_3_PIPE] |267|  ; [ORIG 16-BIT INS]
    1197 000000a8 21AFF240          MOV       A2, #687              ; [DPU_3_PIPE] |267|  ; [KEEP 32-BIT INS]
    1198 000000ac 4281              CMP       A2, A1                ; [DPU_3_PIPE] |267|  ; [ORIG 16-BIT INS]
    1199 000000ae D20D              BCS       ||$C$L4||             ; [DPU_3_PIPE] |267|  ; [ORIG 16-BIT INS]
    1200                            ; BRANCHCC OCCURS {||$C$L4||}    ; [] |267| 
    1201                    ;* --------------------------------------------------------------------------*
    1202                            .dwpsn  file "../joystick_draw3.c",line 268,column 25,is_stmt,isa 1
    1203                    ;----------------------------------------------------------------------
    1204                    ; 268 | frequency = (-.05*resultsBuffer[0])+800;                               
    1205                    ;----------------------------------------------------------------------
    1206 000000b0 6820              LDR       A1, [V1, #0]          ; [DPU_3_PIPE] |268|  ; [ORIG 16-BIT INS]
    1207                    $C$DW$69        .dwtag  DW_TAG_TI_branch
    1208                            .dwattr $C$DW$69, DW_AT_low_pc(0x00)
    1209                            .dwattr $C$DW$69, DW_AT_name("__aeabi_ui2d")
    1210                            .dwattr $C$DW$69, DW_AT_TI_call
TI ARM Assembler Unix v16.9.0 Mon Apr  3 01:00:07 2017

Tools Copyright (c) 1996-2015 Texas Instruments Incorporated
joystick_draw3.asm                                                   PAGE   23

    1211                    
    1212 000000b2 FFFEF7FF!         BL        __aeabi_ui2d          ; [DPU_3_PIPE] |268|  ; [KEEP 32-BIT INS]
    1213                            ; CALL OCCURS {__aeabi_ui2d }    ; [] |268| 
    1214 000000b6 A21D              ADR       A3, $C$FL5            ; [DPU_3_PIPE] |268|  ; [ORIG 16-BIT INS]
    1215 000000b8 CA0C              LDMIA     A3, {A3,A4}           ; [DPU_3_PIPE] |268|  ; [ORIG 16-BIT INS]
    1216                    $C$DW$70        .dwtag  DW_TAG_TI_branch
    1217                            .dwattr $C$DW$70, DW_AT_low_pc(0x00)
    1218                            .dwattr $C$DW$70, DW_AT_name("__aeabi_dmul")
    1219                            .dwattr $C$DW$70, DW_AT_TI_call
    1220                    
    1221 000000ba FFFEF7FF!         BL        __aeabi_dmul          ; [DPU_3_PIPE] |268|  ; [KEEP 32-BIT INS]
    1222                            ; CALL OCCURS {__aeabi_dmul }    ; [] |268| 
    1223 000000be A21D              ADR       A3, $C$FL6            ; [DPU_3_PIPE] |268|  ; [ORIG 16-BIT INS]
    1224 000000c0 CA0C              LDMIA     A3, {A3,A4}           ; [DPU_3_PIPE] |268|  ; [ORIG 16-BIT INS]
    1225                    $C$DW$71        .dwtag  DW_TAG_TI_branch
    1226                            .dwattr $C$DW$71, DW_AT_low_pc(0x00)
    1227                            .dwattr $C$DW$71, DW_AT_name("__aeabi_dadd")
    1228                            .dwattr $C$DW$71, DW_AT_TI_call
    1229                    
    1230 000000c2 FFFEF7FF!         BL        __aeabi_dadd          ; [DPU_3_PIPE] |268|  ; [KEEP 32-BIT INS]
    1231                            ; CALL OCCURS {__aeabi_dadd }    ; [] |268| 
    1232                    $C$DW$72        .dwtag  DW_TAG_TI_branch
    1233                            .dwattr $C$DW$72, DW_AT_low_pc(0x00)
    1234                            .dwattr $C$DW$72, DW_AT_name("__aeabi_d2uiz")
    1235                            .dwattr $C$DW$72, DW_AT_TI_call
    1236                    
    1237 000000c6 FFFEF7FF!         BL        __aeabi_d2uiz         ; [DPU_3_PIPE] |268|  ; [KEEP 32-BIT INS]
    1238                            ; CALL OCCURS {__aeabi_d2uiz }   ; [] |268| 
    1239 000000ca 6028              STR       A1, [V2, #0]          ; [DPU_3_PIPE] |268|  ; [ORIG 16-BIT INS]
    1240                    ;* --------------------------------------------------------------------------*
    1241 000000cc           ||$C$L4||:    
    1242                            .dwpsn  file "../joystick_draw3.c",line 271,column 21,is_stmt,isa 1
    1243                    ;----------------------------------------------------------------------
    1244                    ; 271 | TIMER_A0->CCR[0] = frequency; // set TACCR0 value to frequency         
    1245                    ; 273 | // set duty_cycle based on TACCR0 value                                
    1246                    ;----------------------------------------------------------------------
    1247 000000cc 6828              LDR       A1, [V2, #0]          ; [DPU_3_PIPE] |271|  ; [ORIG 16-BIT INS]
    1248 000000ce 4920              LDR       A2, $C$CON20          ; [DPU_3_PIPE] |271|  ; [ORIG 16-BIT INS]
    1249 000000d0 8008              STRH      A1, [A2, #0]          ; [DPU_3_PIPE] |271|  ; [ORIG 16-BIT INS]
    1250                            .dwpsn  file "../joystick_draw3.c",line 274,column 21,is_stmt,isa 1
    1251                    ;----------------------------------------------------------------------
    1252                    ; 274 | duty_cycle = MAP_Timer_A_getCaptureCompareCount(TIMER_A0_BASE,TIMER_A_C
    1253                    ;     | APTURECOMPARE_REGISTER_0);                                             
    1254                    ; 275 | duty_cycle = duty_cycle*resultsBuffer[1]/17000;                        
    1255                    ; 277 | // set duty_cycle to TACCR4                                            
    1256                    ;----------------------------------------------------------------------
    1257 000000d2 6D70              LDR       A1, [V3, #84]         ; [DPU_3_PIPE] |274|  ; [ORIG 16-BIT INS]
    1258 000000d4 6A40              LDR       A1, [A1, #36]         ; [DPU_3_PIPE] |274|  ; [ORIG 16-BIT INS]
    1259 000000d6 4641              MOV       A2, V5                ; [DPU_3_PIPE] |274|  ; [ORIG 16-BIT INS]
    1260 000000d8 4602              MOV       A3, A1                ; [DPU_3_PIPE] |274|  ; [ORIG 16-BIT INS]
    1261 000000da 4080F04F          MOV       A1, #1073741824       ; [DPU_3_PIPE] |274|  ; [KEEP 32-BIT INS]
    1262                    $C$DW$73        .dwtag  DW_TAG_TI_branch
    1263                            .dwattr $C$DW$73, DW_AT_low_pc(0x00)
    1264                            .dwattr $C$DW$73, DW_AT_TI_call
    1265                            .dwattr $C$DW$73, DW_AT_TI_indirect
TI ARM Assembler Unix v16.9.0 Mon Apr  3 01:00:07 2017

Tools Copyright (c) 1996-2015 Texas Instruments Incorporated
joystick_draw3.asm                                                   PAGE   24

    1266                    
    1267 000000de 4790              BLX       A3                    ; [DPU_3_PIPE] |274|  ; [ORIG 16-BIT INS]
    1268                            ; CALL OCCURS {}                 ; [] |274| 
    1269 000000e0 491C              LDR       A2, $C$CON21          ; [DPU_3_PIPE] |274|  ; [ORIG 16-BIT INS]
    1270                            .dwpsn  file "../joystick_draw3.c",line 278,column 21,is_stmt,isa 1
    1271                    ;----------------------------------------------------------------------
    1272                    ; 278 | MAP_Timer_A_setCompareValue(TIMER_A0_BASE,TIMER_A_CAPTURECOMPARE_REGIST
    1273                    ;     | ER_4,duty_cycle);                                                      
    1274                    ;----------------------------------------------------------------------
    1275 000000e2 6D72              LDR       A3, [V3, #84]         ; [DPU_3_PIPE] |278|  ; [ORIG 16-BIT INS]
    1276                            .dwpsn  file "../joystick_draw3.c",line 274,column 21,is_stmt,isa 1
    1277 000000e4 6008              STR       A1, [A2, #0]          ; [DPU_3_PIPE] |274|  ; [ORIG 16-BIT INS]
    1278                            .dwpsn  file "../joystick_draw3.c",line 278,column 21,is_stmt,isa 1
    1279 000000e6 6B55              LDR       V2, [A3, #52]         ; [DPU_3_PIPE] |278|  ; [ORIG 16-BIT INS]
    1280                            .dwpsn  file "../joystick_draw3.c",line 275,column 21,is_stmt,isa 1
    1281 000000e8 6863              LDR       A4, [V1, #4]          ; [DPU_3_PIPE] |275|  ; [ORIG 16-BIT INS]
    1282 000000ea 6808              LDR       A1, [A2, #0]          ; [DPU_3_PIPE] |275|  ; [ORIG 16-BIT INS]
    1283 000000ec 2768F244          MOV       V4, #17000            ; [DPU_3_PIPE] |275|  ; [KEEP 32-BIT INS]
    1284 000000f0 4358              MULS      A1, A1, A4            ; [DPU_3_PIPE] |275|  ; [ORIG 16-BIT INS]
    1285 000000f2 F0F7FBB0          UDIV      A1, A1, V4            ; [DPU_3_PIPE] |275|  ; [KEEP 32-BIT INS]
    1286 000000f6 6008              STR       A1, [A2, #0]          ; [DPU_3_PIPE] |275|  ; [ORIG 16-BIT INS]
    1287                            .dwpsn  file "../joystick_draw3.c",line 278,column 21,is_stmt,isa 1
    1288 000000f8 680A              LDR       A3, [A2, #0]          ; [DPU_3_PIPE] |278|  ; [ORIG 16-BIT INS]
    1289 000000fa 462B              MOV       A4, V2                ; [DPU_3_PIPE] |278|  ; [ORIG 16-BIT INS]
    1290 000000fc 4080F04F          MOV       A1, #1073741824       ; [DPU_3_PIPE] |278|  ; [KEEP 32-BIT INS]
    1291 00000100 210A              MOVS      A2, #10               ; [DPU_3_PIPE] |278|  ; [ORIG 16-BIT INS]
    1292                    $C$DW$74        .dwtag  DW_TAG_TI_branch
    1293                            .dwattr $C$DW$74, DW_AT_low_pc(0x00)
    1294                            .dwattr $C$DW$74, DW_AT_TI_call
    1295                            .dwattr $C$DW$74, DW_AT_TI_indirect
    1296                    
    1297 00000102 4798              BLX       A4                    ; [DPU_3_PIPE] |278|  ; [ORIG 16-BIT INS]
    1298                            ; CALL OCCURS {}                 ; [] |278| 
    1299                    ;* --------------------------------------------------------------------------*
    1300                    ||$C$L5||:    
    1301                    $C$DW$75        .dwtag  DW_TAG_TI_branch
    1302                            .dwattr $C$DW$75, DW_AT_low_pc(0x00)
    1303                            .dwattr $C$DW$75, DW_AT_TI_return
    1304                    
    1305 00000104 81F0E8BD          POP       {V1, V2, V3, V4, V5, PC} ; [DPU_3_PIPE]  ; [KEEP 32-BIT INS]
    1306                            .dwcfi  cfa_offset, 0
    1307                            ; BRANCH OCCURS                  ; [] 
    1308                            .dwattr $C$DW$57, DW_AT_TI_end_file("../joystick_draw3.c")
    1309                            .dwattr $C$DW$57, DW_AT_TI_end_line(0x120)
    1310                            .dwattr $C$DW$57, DW_AT_TI_end_column(0x01)
    1311                            .dwendentry
    1312                            .dwendtag $C$DW$57
    1313                    
    1314                    ;******************************************************************************
    1315                    ;* CONSTANT TABLE                                                             *
    1316                    ;******************************************************************************
    1317 00000030                   .sect   ".text:TA0_0_Handler"
    1318                            .align  4
    1319 00000030 02000858  ||$C$CON1||:    .bits   33556568,32
    1320                            .align  4
TI ARM Assembler Unix v16.9.0 Mon Apr  3 01:00:07 2017

Tools Copyright (c) 1996-2015 Texas Instruments Incorporated
joystick_draw3.asm                                                   PAGE   25

    1321 00000034 00000000! ||$C$CON2||:    .bits   counter,32
    1322                    ;******************************************************************************
    1323                    ;* CONSTANT TABLE                                                             *
    1324                    ;******************************************************************************
    1325 0000010e                   .sect   ".text:init_timer"
    1326                            .align  4
    1327 0000010e 000046C0! ||$C$CON3||:    .bits   upConfig,32
         00000112 00000000 
    1328                            .align  4
    1329 00000112 00000000! ||$C$CON4||:    .bits   ccr0_Config,32
         00000116 00000000 
    1330                            .align  4
    1331 00000116 00000000! ||$C$CON5||:    .bits   ccr4_Config,32
         0000011a 00000000 
    1332                            .align  4
    1333 0000011a 00000000! ||$C$CON6||:    .bits   TA0_0_Handler,32
         0000011e 00000000 
    1334                    ;******************************************************************************
    1335                    ;* CONSTANT TABLE                                                             *
    1336                    ;******************************************************************************
    1337 00000056                   .sect   ".text:main"
    1338                            .align  4
    1339 00000056 968046C0  ||$C$CON7||:    .bits   10000000,32
         0000005a 00000098 
    1340                            .align  4
    1341 0000005a 00000098! ||$C$CON9||:    .bits   print_flag,32
         0000005e 00000000 
    1342                            .align  4
    1343 0000005e 00000000! ||$C$CON11||:   .bits   resultsBuffer,32
         00000062 00000000 
    1344                            .align  4
    1345 00000062 00000000! ||$C$CON12||:   .bits   counter,32
         00000066 00000000 
    1346                            .align  4
    1347 00000066 08580000  ||$C$CON13||:   .bits   33556568,32
         0000006a 00000200 
    1348                    ;******************************************************************************
    1349                    ;* STRINGS                                                                    *
    1350                    ;******************************************************************************
    1351 00000108                   .sect   ".text:ADC14_IRQHandler"
    1352                            .align  4
    1353 00000108 25        ||$C$SL1||:     .string "%d",0
         00000109 64       
         0000010a 00       
    1354                    ;******************************************************************************
    1355                    ;* FLOATING-POINT CONSTANTS                                                   *
    1356                    ;******************************************************************************
    1357 0000010b                   .sect   ".text:ADC14_IRQHandler"
    1358                            .align  4
    1359 0000010c 00000000  ||$C$FL1||:     .word   000000000h
    1360 00000110 3FE00000          .word   03fe00000h      ; 0.5
    1361                            .align  4
    1362 00000114 00000000  ||$C$FL2||:     .word   000000000h
    1363 00000118 4072C000          .word   04072c000h      ; 300
    1364                            .align  4
TI ARM Assembler Unix v16.9.0 Mon Apr  3 01:00:07 2017

Tools Copyright (c) 1996-2015 Texas Instruments Incorporated
joystick_draw3.asm                                                   PAGE   26

    1365 0000011c 00000000  ||$C$FL3||:     .word   000000000h
    1366 00000120 3FF00000          .word   03ff00000h      ; 1
    1367                            .align  4
    1368 00000124 00000000  ||$C$FL4||:     .word   000000000h
    1369 00000128 412E8480          .word   0412e8480h      ; 1000000
    1370                            .align  4
    1371 0000012c 9999999A  ||$C$FL5||:     .word   09999999ah
    1372 00000130 BFA99999          .word   0bfa99999h      ; -0.05000000000000000278
    1373                            .align  4
    1374 00000134 00000000  ||$C$FL6||:     .word   000000000h
    1375 00000138 40890000          .word   040890000h      ; 800
    1376                    ;******************************************************************************
    1377                    ;* CONSTANT TABLE                                                             *
    1378                    ;******************************************************************************
    1379 0000013c                   .sect   ".text:ADC14_IRQHandler"
    1380                            .align  4
    1381 0000013c 02000804  ||$C$CON14||:   .bits   33556484,32
    1382                            .align  4
    1383 00000140 40004C21  ||$C$CON15||:   .bits   1073761313,32
    1384                            .align  4
    1385 00000144 00000000! ||$C$CON16||:   .bits   buttonPressed,32
    1386                            .align  4
    1387 00000148 00000000! ||$C$CON17||:   .bits   state,32
    1388                            .align  4
    1389 0000014c 00000000! ||$C$CON19||:   .bits   frequency,32
    1390                            .align  4
    1391 00000150 40000012  ||$C$CON20||:   .bits   1073741842,32
    1392                            .align  4
    1393 00000154 00000000! ||$C$CON21||:   .bits   duty_cycle,32
    1394                            .align  4
    1395 00000158 00000000! ||$C$CON22||:   .bits   resultsBuffer,32
    1396                    ;*****************************************************************************
    1397                    ;* UNDEFINED EXTERNAL REFERENCES                                             *
    1398                    ;*****************************************************************************
    1399                            .global ADC14_getResult
    1400                            .global GPIO_setAsPeripheralModuleFunctionOutputPin
    1401                            .global Timer_A_registerInterrupt
    1402                            .global printf
    1403                            .global print_current_results
    1404                            .global __aeabi_ui2d
    1405                            .global __aeabi_dmul
    1406                            .global __aeabi_dadd
    1407                            .global __aeabi_ddiv
    1408                            .global __aeabi_d2uiz
    1409                    
    1410                    ;******************************************************************************
    1411                    ;* BUILD ATTRIBUTES                                                           *
    1412                    ;******************************************************************************
    1413                            .battr "aeabi", Tag_File, 1, Tag_ABI_PCS_wchar_t(2)
    1414                            .battr "aeabi", Tag_File, 1, Tag_ABI_FP_rounding(0)
    1415                            .battr "aeabi", Tag_File, 1, Tag_ABI_FP_denormal(0)
    1416                            .battr "aeabi", Tag_File, 1, Tag_ABI_FP_exceptions(0)
    1417                            .battr "aeabi", Tag_File, 1, Tag_ABI_FP_number_model(1)
    1418                            .battr "aeabi", Tag_File, 1, Tag_ABI_enum_size(1)
    1419                            .battr "aeabi", Tag_File, 1, Tag_ABI_optimization_goals(4)
TI ARM Assembler Unix v16.9.0 Mon Apr  3 01:00:07 2017

Tools Copyright (c) 1996-2015 Texas Instruments Incorporated
joystick_draw3.asm                                                   PAGE   27

    1420                            .battr "aeabi", Tag_File, 1, Tag_ABI_FP_optimization_goals(0)
    1421                            .battr "TI", Tag_File, 1, Tag_Bitfield_layout(0)
    1422                            .battr "aeabi", Tag_File, 1, Tag_ABI_VFP_args(3)
    1423                            .battr "TI", Tag_File, 1, Tag_FP_interface(1)
    1424                    
    1425                    ;******************************************************************************
    1426                    ;* TYPE INFORMATION                                                           *
    1427                    ;******************************************************************************
    1428                    
    1429                    $C$DW$T$24      .dwtag  DW_TAG_structure_type
    1430                            .dwattr $C$DW$T$24, DW_AT_byte_size(0x30)
    1431                    $C$DW$76        .dwtag  DW_TAG_member
    1432                            .dwattr $C$DW$76, DW_AT_type(*$C$DW$T$20)
    1433                            .dwattr $C$DW$76, DW_AT_name("CTL")
    1434                            .dwattr $C$DW$76, DW_AT_TI_symbol_name("CTL")
    1435                            .dwattr $C$DW$76, DW_AT_data_member_location[DW_OP_plus_uconst 0x0]
    1436                            .dwattr $C$DW$76, DW_AT_accessibility(DW_ACCESS_public)
    1437                            .dwattr $C$DW$76, DW_AT_decl_file("/Users/jadedh/ti/tirex-content/simplelink_msp432_sdk_1_20_0
    1438                            .dwattr $C$DW$76, DW_AT_decl_line(0x4a1)
    1439                            .dwattr $C$DW$76, DW_AT_decl_column(0x11)
    1440                    
    1441                    $C$DW$77        .dwtag  DW_TAG_member
    1442                            .dwattr $C$DW$77, DW_AT_type(*$C$DW$T$21)
    1443                            .dwattr $C$DW$77, DW_AT_name("CCTL")
    1444                            .dwattr $C$DW$77, DW_AT_TI_symbol_name("CCTL")
    1445                            .dwattr $C$DW$77, DW_AT_data_member_location[DW_OP_plus_uconst 0x2]
    1446                            .dwattr $C$DW$77, DW_AT_accessibility(DW_ACCESS_public)
    1447                            .dwattr $C$DW$77, DW_AT_decl_file("/Users/jadedh/ti/tirex-content/simplelink_msp432_sdk_1_20_0
    1448                            .dwattr $C$DW$77, DW_AT_decl_line(0x4a2)
    1449                            .dwattr $C$DW$77, DW_AT_decl_column(0x11)
    1450                    
    1451                    $C$DW$78        .dwtag  DW_TAG_member
    1452                            .dwattr $C$DW$78, DW_AT_type(*$C$DW$T$20)
    1453                            .dwattr $C$DW$78, DW_AT_name("R")
    1454                            .dwattr $C$DW$78, DW_AT_TI_symbol_name("R")
    1455                            .dwattr $C$DW$78, DW_AT_data_member_location[DW_OP_plus_uconst 0x10]
    1456                            .dwattr $C$DW$78, DW_AT_accessibility(DW_ACCESS_public)
    1457                            .dwattr $C$DW$78, DW_AT_decl_file("/Users/jadedh/ti/tirex-content/simplelink_msp432_sdk_1_20_0
    1458                            .dwattr $C$DW$78, DW_AT_decl_line(0x4a3)
    1459                            .dwattr $C$DW$78, DW_AT_decl_column(0x11)
    1460                    
    1461                    $C$DW$79        .dwtag  DW_TAG_member
    1462                            .dwattr $C$DW$79, DW_AT_type(*$C$DW$T$21)
    1463                            .dwattr $C$DW$79, DW_AT_name("CCR")
    1464                            .dwattr $C$DW$79, DW_AT_TI_symbol_name("CCR")
    1465                            .dwattr $C$DW$79, DW_AT_data_member_location[DW_OP_plus_uconst 0x12]
    1466                            .dwattr $C$DW$79, DW_AT_accessibility(DW_ACCESS_public)
    1467                            .dwattr $C$DW$79, DW_AT_decl_file("/Users/jadedh/ti/tirex-content/simplelink_msp432_sdk_1_20_0
    1468                            .dwattr $C$DW$79, DW_AT_decl_line(0x4a4)
    1469                            .dwattr $C$DW$79, DW_AT_decl_column(0x11)
    1470                    
    1471                    $C$DW$80        .dwtag  DW_TAG_member
    1472                            .dwattr $C$DW$80, DW_AT_type(*$C$DW$T$20)
    1473                            .dwattr $C$DW$80, DW_AT_name("EX0")
    1474                            .dwattr $C$DW$80, DW_AT_TI_symbol_name("EX0")
TI ARM Assembler Unix v16.9.0 Mon Apr  3 01:00:07 2017

Tools Copyright (c) 1996-2015 Texas Instruments Incorporated
joystick_draw3.asm                                                   PAGE   28

    1475                            .dwattr $C$DW$80, DW_AT_data_member_location[DW_OP_plus_uconst 0x20]
    1476                            .dwattr $C$DW$80, DW_AT_accessibility(DW_ACCESS_public)
    1477                            .dwattr $C$DW$80, DW_AT_decl_file("/Users/jadedh/ti/tirex-content/simplelink_msp432_sdk_1_20_0
    1478                            .dwattr $C$DW$80, DW_AT_decl_line(0x4a5)
    1479                            .dwattr $C$DW$80, DW_AT_decl_column(0x11)
    1480                    
    1481                    $C$DW$81        .dwtag  DW_TAG_member
    1482                            .dwattr $C$DW$81, DW_AT_type(*$C$DW$T$22)
    1483                            .dwattr $C$DW$81, DW_AT_name("RESERVED0")
    1484                            .dwattr $C$DW$81, DW_AT_TI_symbol_name("RESERVED0")
    1485                            .dwattr $C$DW$81, DW_AT_data_member_location[DW_OP_plus_uconst 0x22]
    1486                            .dwattr $C$DW$81, DW_AT_accessibility(DW_ACCESS_public)
    1487                            .dwattr $C$DW$81, DW_AT_decl_file("/Users/jadedh/ti/tirex-content/simplelink_msp432_sdk_1_20_0
    1488                            .dwattr $C$DW$81, DW_AT_decl_line(0x4a6)
    1489                            .dwattr $C$DW$81, DW_AT_decl_column(0x11)
    1490                    
    1491                    $C$DW$82        .dwtag  DW_TAG_member
    1492                            .dwattr $C$DW$82, DW_AT_type(*$C$DW$T$23)
    1493                            .dwattr $C$DW$82, DW_AT_name("IV")
    1494                            .dwattr $C$DW$82, DW_AT_TI_symbol_name("IV")
    1495                            .dwattr $C$DW$82, DW_AT_data_member_location[DW_OP_plus_uconst 0x2e]
    1496                            .dwattr $C$DW$82, DW_AT_accessibility(DW_ACCESS_public)
    1497                            .dwattr $C$DW$82, DW_AT_decl_file("/Users/jadedh/ti/tirex-content/simplelink_msp432_sdk_1_20_0
    1498                            .dwattr $C$DW$82, DW_AT_decl_line(0x4a7)
    1499                            .dwattr $C$DW$82, DW_AT_decl_column(0x11)
    1500                    
    1501                            .dwattr $C$DW$T$24, DW_AT_decl_file("/Users/jadedh/ti/tirex-content/simplelink_msp432_sdk_1_20
    1502                            .dwattr $C$DW$T$24, DW_AT_decl_line(0x4a0)
    1503                            .dwattr $C$DW$T$24, DW_AT_decl_column(0x10)
    1504                            .dwendtag $C$DW$T$24
    1505                    
    1506                    $C$DW$T$193     .dwtag  DW_TAG_typedef
    1507                            .dwattr $C$DW$T$193, DW_AT_name("Timer_A_Type")
    1508                            .dwattr $C$DW$T$193, DW_AT_type(*$C$DW$T$24)
    1509                            .dwattr $C$DW$T$193, DW_AT_language(DW_LANG_C)
    1510                            .dwattr $C$DW$T$193, DW_AT_decl_file("/Users/jadedh/ti/tirex-content/simplelink_msp432_sdk_1_2
    1511                            .dwattr $C$DW$T$193, DW_AT_decl_line(0x4a8)
    1512                            .dwattr $C$DW$T$193, DW_AT_decl_column(0x03)
    1513                    
    1514                    
    1515                    $C$DW$T$26      .dwtag  DW_TAG_structure_type
    1516                            .dwattr $C$DW$T$26, DW_AT_byte_size(0x04)
    1517                    $C$DW$83        .dwtag  DW_TAG_member
    1518                            .dwattr $C$DW$83, DW_AT_type(*$C$DW$T$25)
    1519                            .dwattr $C$DW$83, DW_AT_name("_reserved0")
    1520                            .dwattr $C$DW$83, DW_AT_TI_symbol_name("_reserved0")
    1521                            .dwattr $C$DW$83, DW_AT_bit_offset(0x10)
    1522                            .dwattr $C$DW$83, DW_AT_bit_size(0x10)
    1523                            .dwattr $C$DW$83, DW_AT_data_member_location[DW_OP_plus_uconst 0x0]
    1524                            .dwattr $C$DW$83, DW_AT_accessibility(DW_ACCESS_public)
    1525                            .dwattr $C$DW$83, DW_AT_decl_file("/Users/jadedh/ti/tirex-content/simplelink_msp432_sdk_1_20_0
    1526                            .dwattr $C$DW$83, DW_AT_decl_line(0x138)
    1527                            .dwattr $C$DW$83, DW_AT_decl_column(0x0e)
    1528                    
    1529                    $C$DW$84        .dwtag  DW_TAG_member
TI ARM Assembler Unix v16.9.0 Mon Apr  3 01:00:07 2017

Tools Copyright (c) 1996-2015 Texas Instruments Incorporated
joystick_draw3.asm                                                   PAGE   29

    1530                            .dwattr $C$DW$84, DW_AT_type(*$C$DW$T$25)
    1531                            .dwattr $C$DW$84, DW_AT_name("GE")
    1532                            .dwattr $C$DW$84, DW_AT_TI_symbol_name("GE")
    1533                            .dwattr $C$DW$84, DW_AT_bit_offset(0x0c)
    1534                            .dwattr $C$DW$84, DW_AT_bit_size(0x04)
    1535                            .dwattr $C$DW$84, DW_AT_data_member_location[DW_OP_plus_uconst 0x0]
    1536                            .dwattr $C$DW$84, DW_AT_accessibility(DW_ACCESS_public)
    1537                            .dwattr $C$DW$84, DW_AT_decl_file("/Users/jadedh/ti/tirex-content/simplelink_msp432_sdk_1_20_0
    1538                            .dwattr $C$DW$84, DW_AT_decl_line(0x139)
    1539                            .dwattr $C$DW$84, DW_AT_decl_column(0x0e)
    1540                    
    1541                    $C$DW$85        .dwtag  DW_TAG_member
    1542                            .dwattr $C$DW$85, DW_AT_type(*$C$DW$T$25)
    1543                            .dwattr $C$DW$85, DW_AT_name("_reserved1")
    1544                            .dwattr $C$DW$85, DW_AT_TI_symbol_name("_reserved1")
    1545                            .dwattr $C$DW$85, DW_AT_bit_offset(0x05)
    1546                            .dwattr $C$DW$85, DW_AT_bit_size(0x07)
    1547                            .dwattr $C$DW$85, DW_AT_data_member_location[DW_OP_plus_uconst 0x0]
    1548                            .dwattr $C$DW$85, DW_AT_accessibility(DW_ACCESS_public)
    1549                            .dwattr $C$DW$85, DW_AT_decl_file("/Users/jadedh/ti/tirex-content/simplelink_msp432_sdk_1_20_0
    1550                            .dwattr $C$DW$85, DW_AT_decl_line(0x13a)
    1551                            .dwattr $C$DW$85, DW_AT_decl_column(0x0e)
    1552                    
    1553                    $C$DW$86        .dwtag  DW_TAG_member
    1554                            .dwattr $C$DW$86, DW_AT_type(*$C$DW$T$25)
    1555                            .dwattr $C$DW$86, DW_AT_name("Q")
    1556                            .dwattr $C$DW$86, DW_AT_TI_symbol_name("Q")
    1557                            .dwattr $C$DW$86, DW_AT_bit_offset(0x04)
    1558                            .dwattr $C$DW$86, DW_AT_bit_size(0x01)
    1559                            .dwattr $C$DW$86, DW_AT_data_member_location[DW_OP_plus_uconst 0x0]
    1560                            .dwattr $C$DW$86, DW_AT_accessibility(DW_ACCESS_public)
    1561                            .dwattr $C$DW$86, DW_AT_decl_file("/Users/jadedh/ti/tirex-content/simplelink_msp432_sdk_1_20_0
    1562                            .dwattr $C$DW$86, DW_AT_decl_line(0x13b)
    1563                            .dwattr $C$DW$86, DW_AT_decl_column(0x0e)
    1564                    
    1565                    $C$DW$87        .dwtag  DW_TAG_member
    1566                            .dwattr $C$DW$87, DW_AT_type(*$C$DW$T$25)
    1567                            .dwattr $C$DW$87, DW_AT_name("V")
    1568                            .dwattr $C$DW$87, DW_AT_TI_symbol_name("V")
    1569                            .dwattr $C$DW$87, DW_AT_bit_offset(0x03)
    1570                            .dwattr $C$DW$87, DW_AT_bit_size(0x01)
    1571                            .dwattr $C$DW$87, DW_AT_data_member_location[DW_OP_plus_uconst 0x0]
    1572                            .dwattr $C$DW$87, DW_AT_accessibility(DW_ACCESS_public)
    1573                            .dwattr $C$DW$87, DW_AT_decl_file("/Users/jadedh/ti/tirex-content/simplelink_msp432_sdk_1_20_0
    1574                            .dwattr $C$DW$87, DW_AT_decl_line(0x13c)
    1575                            .dwattr $C$DW$87, DW_AT_decl_column(0x0e)
    1576                    
    1577                    $C$DW$88        .dwtag  DW_TAG_member
    1578                            .dwattr $C$DW$88, DW_AT_type(*$C$DW$T$25)
    1579                            .dwattr $C$DW$88, DW_AT_name("C")
    1580                            .dwattr $C$DW$88, DW_AT_TI_symbol_name("C")
    1581                            .dwattr $C$DW$88, DW_AT_bit_offset(0x02)
    1582                            .dwattr $C$DW$88, DW_AT_bit_size(0x01)
    1583                            .dwattr $C$DW$88, DW_AT_data_member_location[DW_OP_plus_uconst 0x0]
    1584                            .dwattr $C$DW$88, DW_AT_accessibility(DW_ACCESS_public)
TI ARM Assembler Unix v16.9.0 Mon Apr  3 01:00:07 2017

Tools Copyright (c) 1996-2015 Texas Instruments Incorporated
joystick_draw3.asm                                                   PAGE   30

    1585                            .dwattr $C$DW$88, DW_AT_decl_file("/Users/jadedh/ti/tirex-content/simplelink_msp432_sdk_1_20_0
    1586                            .dwattr $C$DW$88, DW_AT_decl_line(0x13d)
    1587                            .dwattr $C$DW$88, DW_AT_decl_column(0x0e)
    1588                    
    1589                    $C$DW$89        .dwtag  DW_TAG_member
    1590                            .dwattr $C$DW$89, DW_AT_type(*$C$DW$T$25)
    1591                            .dwattr $C$DW$89, DW_AT_name("Z")
    1592                            .dwattr $C$DW$89, DW_AT_TI_symbol_name("Z")
    1593                            .dwattr $C$DW$89, DW_AT_bit_offset(0x01)
    1594                            .dwattr $C$DW$89, DW_AT_bit_size(0x01)
    1595                            .dwattr $C$DW$89, DW_AT_data_member_location[DW_OP_plus_uconst 0x0]
    1596                            .dwattr $C$DW$89, DW_AT_accessibility(DW_ACCESS_public)
    1597                            .dwattr $C$DW$89, DW_AT_decl_file("/Users/jadedh/ti/tirex-content/simplelink_msp432_sdk_1_20_0
    1598                            .dwattr $C$DW$89, DW_AT_decl_line(0x13e)
    1599                            .dwattr $C$DW$89, DW_AT_decl_column(0x0e)
    1600                    
    1601                    $C$DW$90        .dwtag  DW_TAG_member
    1602                            .dwattr $C$DW$90, DW_AT_type(*$C$DW$T$25)
    1603                            .dwattr $C$DW$90, DW_AT_name("N")
    1604                            .dwattr $C$DW$90, DW_AT_TI_symbol_name("N")
    1605                            .dwattr $C$DW$90, DW_AT_bit_offset(0x00)
    1606                            .dwattr $C$DW$90, DW_AT_bit_size(0x01)
    1607                            .dwattr $C$DW$90, DW_AT_data_member_location[DW_OP_plus_uconst 0x0]
    1608                            .dwattr $C$DW$90, DW_AT_accessibility(DW_ACCESS_public)
    1609                            .dwattr $C$DW$90, DW_AT_decl_file("/Users/jadedh/ti/tirex-content/simplelink_msp432_sdk_1_20_0
    1610                            .dwattr $C$DW$90, DW_AT_decl_line(0x13f)
    1611                            .dwattr $C$DW$90, DW_AT_decl_column(0x0e)
    1612                    
    1613                            .dwattr $C$DW$T$26, DW_AT_decl_file("/Users/jadedh/ti/tirex-content/simplelink_msp432_sdk_1_20
    1614                            .dwattr $C$DW$T$26, DW_AT_decl_line(0x137)
    1615                            .dwattr $C$DW$T$26, DW_AT_decl_column(0x03)
    1616                            .dwendtag $C$DW$T$26
    1617                    
    1618                    
    1619                    $C$DW$T$27      .dwtag  DW_TAG_structure_type
    1620                            .dwattr $C$DW$T$27, DW_AT_byte_size(0x04)
    1621                    $C$DW$91        .dwtag  DW_TAG_member
    1622                            .dwattr $C$DW$91, DW_AT_type(*$C$DW$T$25)
    1623                            .dwattr $C$DW$91, DW_AT_name("ISR")
    1624                            .dwattr $C$DW$91, DW_AT_TI_symbol_name("ISR")
    1625                            .dwattr $C$DW$91, DW_AT_bit_offset(0x17)
    1626                            .dwattr $C$DW$91, DW_AT_bit_size(0x09)
    1627                            .dwattr $C$DW$91, DW_AT_data_member_location[DW_OP_plus_uconst 0x0]
    1628                            .dwattr $C$DW$91, DW_AT_accessibility(DW_ACCESS_public)
    1629                            .dwattr $C$DW$91, DW_AT_decl_file("/Users/jadedh/ti/tirex-content/simplelink_msp432_sdk_1_20_0
    1630                            .dwattr $C$DW$91, DW_AT_decl_line(0x15f)
    1631                            .dwattr $C$DW$91, DW_AT_decl_column(0x0e)
    1632                    
    1633                    $C$DW$92        .dwtag  DW_TAG_member
    1634                            .dwattr $C$DW$92, DW_AT_type(*$C$DW$T$25)
    1635                            .dwattr $C$DW$92, DW_AT_name("_reserved0")
    1636                            .dwattr $C$DW$92, DW_AT_TI_symbol_name("_reserved0")
    1637                            .dwattr $C$DW$92, DW_AT_bit_offset(0x00)
    1638                            .dwattr $C$DW$92, DW_AT_bit_size(0x17)
    1639                            .dwattr $C$DW$92, DW_AT_data_member_location[DW_OP_plus_uconst 0x0]
TI ARM Assembler Unix v16.9.0 Mon Apr  3 01:00:07 2017

Tools Copyright (c) 1996-2015 Texas Instruments Incorporated
joystick_draw3.asm                                                   PAGE   31

    1640                            .dwattr $C$DW$92, DW_AT_accessibility(DW_ACCESS_public)
    1641                            .dwattr $C$DW$92, DW_AT_decl_file("/Users/jadedh/ti/tirex-content/simplelink_msp432_sdk_1_20_0
    1642                            .dwattr $C$DW$92, DW_AT_decl_line(0x160)
    1643                            .dwattr $C$DW$92, DW_AT_decl_column(0x0e)
    1644                    
    1645                            .dwattr $C$DW$T$27, DW_AT_decl_file("/Users/jadedh/ti/tirex-content/simplelink_msp432_sdk_1_20
    1646                            .dwattr $C$DW$T$27, DW_AT_decl_line(0x15e)
    1647                            .dwattr $C$DW$T$27, DW_AT_decl_column(0x03)
    1648                            .dwendtag $C$DW$T$27
    1649                    
    1650                    
    1651                    $C$DW$T$28      .dwtag  DW_TAG_structure_type
    1652                            .dwattr $C$DW$T$28, DW_AT_byte_size(0x04)
    1653                    $C$DW$93        .dwtag  DW_TAG_member
    1654                            .dwattr $C$DW$93, DW_AT_type(*$C$DW$T$25)
    1655                            .dwattr $C$DW$93, DW_AT_name("ISR")
    1656                            .dwattr $C$DW$93, DW_AT_TI_symbol_name("ISR")
    1657                            .dwattr $C$DW$93, DW_AT_bit_offset(0x17)
    1658                            .dwattr $C$DW$93, DW_AT_bit_size(0x09)
    1659                            .dwattr $C$DW$93, DW_AT_data_member_location[DW_OP_plus_uconst 0x0]
    1660                            .dwattr $C$DW$93, DW_AT_accessibility(DW_ACCESS_public)
    1661                            .dwattr $C$DW$93, DW_AT_decl_file("/Users/jadedh/ti/tirex-content/simplelink_msp432_sdk_1_20_0
    1662                            .dwattr $C$DW$93, DW_AT_decl_line(0x171)
    1663                            .dwattr $C$DW$93, DW_AT_decl_column(0x0e)
    1664                    
    1665                    $C$DW$94        .dwtag  DW_TAG_member
    1666                            .dwattr $C$DW$94, DW_AT_type(*$C$DW$T$25)
    1667                            .dwattr $C$DW$94, DW_AT_name("_reserved0")
    1668                            .dwattr $C$DW$94, DW_AT_TI_symbol_name("_reserved0")
    1669                            .dwattr $C$DW$94, DW_AT_bit_offset(0x10)
    1670                            .dwattr $C$DW$94, DW_AT_bit_size(0x07)
    1671                            .dwattr $C$DW$94, DW_AT_data_member_location[DW_OP_plus_uconst 0x0]
    1672                            .dwattr $C$DW$94, DW_AT_accessibility(DW_ACCESS_public)
    1673                            .dwattr $C$DW$94, DW_AT_decl_file("/Users/jadedh/ti/tirex-content/simplelink_msp432_sdk_1_20_0
    1674                            .dwattr $C$DW$94, DW_AT_decl_line(0x172)
    1675                            .dwattr $C$DW$94, DW_AT_decl_column(0x0e)
    1676                    
    1677                    $C$DW$95        .dwtag  DW_TAG_member
    1678                            .dwattr $C$DW$95, DW_AT_type(*$C$DW$T$25)
    1679                            .dwattr $C$DW$95, DW_AT_name("GE")
    1680                            .dwattr $C$DW$95, DW_AT_TI_symbol_name("GE")
    1681                            .dwattr $C$DW$95, DW_AT_bit_offset(0x0c)
    1682                            .dwattr $C$DW$95, DW_AT_bit_size(0x04)
    1683                            .dwattr $C$DW$95, DW_AT_data_member_location[DW_OP_plus_uconst 0x0]
    1684                            .dwattr $C$DW$95, DW_AT_accessibility(DW_ACCESS_public)
    1685                            .dwattr $C$DW$95, DW_AT_decl_file("/Users/jadedh/ti/tirex-content/simplelink_msp432_sdk_1_20_0
    1686                            .dwattr $C$DW$95, DW_AT_decl_line(0x173)
    1687                            .dwattr $C$DW$95, DW_AT_decl_column(0x0e)
    1688                    
    1689                    $C$DW$96        .dwtag  DW_TAG_member
    1690                            .dwattr $C$DW$96, DW_AT_type(*$C$DW$T$25)
    1691                            .dwattr $C$DW$96, DW_AT_name("_reserved1")
    1692                            .dwattr $C$DW$96, DW_AT_TI_symbol_name("_reserved1")
    1693                            .dwattr $C$DW$96, DW_AT_bit_offset(0x08)
    1694                            .dwattr $C$DW$96, DW_AT_bit_size(0x04)
TI ARM Assembler Unix v16.9.0 Mon Apr  3 01:00:07 2017

Tools Copyright (c) 1996-2015 Texas Instruments Incorporated
joystick_draw3.asm                                                   PAGE   32

    1695                            .dwattr $C$DW$96, DW_AT_data_member_location[DW_OP_plus_uconst 0x0]
    1696                            .dwattr $C$DW$96, DW_AT_accessibility(DW_ACCESS_public)
    1697                            .dwattr $C$DW$96, DW_AT_decl_file("/Users/jadedh/ti/tirex-content/simplelink_msp432_sdk_1_20_0
    1698                            .dwattr $C$DW$96, DW_AT_decl_line(0x174)
    1699                            .dwattr $C$DW$96, DW_AT_decl_column(0x0e)
    1700                    
    1701                    $C$DW$97        .dwtag  DW_TAG_member
    1702                            .dwattr $C$DW$97, DW_AT_type(*$C$DW$T$25)
    1703                            .dwattr $C$DW$97, DW_AT_name("T")
    1704                            .dwattr $C$DW$97, DW_AT_TI_symbol_name("T")
    1705                            .dwattr $C$DW$97, DW_AT_bit_offset(0x07)
    1706                            .dwattr $C$DW$97, DW_AT_bit_size(0x01)
    1707                            .dwattr $C$DW$97, DW_AT_data_member_location[DW_OP_plus_uconst 0x0]
    1708                            .dwattr $C$DW$97, DW_AT_accessibility(DW_ACCESS_public)
    1709                            .dwattr $C$DW$97, DW_AT_decl_file("/Users/jadedh/ti/tirex-content/simplelink_msp432_sdk_1_20_0
    1710                            .dwattr $C$DW$97, DW_AT_decl_line(0x175)
    1711                            .dwattr $C$DW$97, DW_AT_decl_column(0x0e)
    1712                    
    1713                    $C$DW$98        .dwtag  DW_TAG_member
    1714                            .dwattr $C$DW$98, DW_AT_type(*$C$DW$T$25)
    1715                            .dwattr $C$DW$98, DW_AT_name("IT")
    1716                            .dwattr $C$DW$98, DW_AT_TI_symbol_name("IT")
    1717                            .dwattr $C$DW$98, DW_AT_bit_offset(0x05)
    1718                            .dwattr $C$DW$98, DW_AT_bit_size(0x02)
    1719                            .dwattr $C$DW$98, DW_AT_data_member_location[DW_OP_plus_uconst 0x0]
    1720                            .dwattr $C$DW$98, DW_AT_accessibility(DW_ACCESS_public)
    1721                            .dwattr $C$DW$98, DW_AT_decl_file("/Users/jadedh/ti/tirex-content/simplelink_msp432_sdk_1_20_0
    1722                            .dwattr $C$DW$98, DW_AT_decl_line(0x176)
    1723                            .dwattr $C$DW$98, DW_AT_decl_column(0x0e)
    1724                    
    1725                    $C$DW$99        .dwtag  DW_TAG_member
    1726                            .dwattr $C$DW$99, DW_AT_type(*$C$DW$T$25)
    1727                            .dwattr $C$DW$99, DW_AT_name("Q")
    1728                            .dwattr $C$DW$99, DW_AT_TI_symbol_name("Q")
    1729                            .dwattr $C$DW$99, DW_AT_bit_offset(0x04)
    1730                            .dwattr $C$DW$99, DW_AT_bit_size(0x01)
    1731                            .dwattr $C$DW$99, DW_AT_data_member_location[DW_OP_plus_uconst 0x0]
    1732                            .dwattr $C$DW$99, DW_AT_accessibility(DW_ACCESS_public)
    1733                            .dwattr $C$DW$99, DW_AT_decl_file("/Users/jadedh/ti/tirex-content/simplelink_msp432_sdk_1_20_0
    1734                            .dwattr $C$DW$99, DW_AT_decl_line(0x177)
    1735                            .dwattr $C$DW$99, DW_AT_decl_column(0x0e)
    1736                    
    1737                    $C$DW$100       .dwtag  DW_TAG_member
    1738                            .dwattr $C$DW$100, DW_AT_type(*$C$DW$T$25)
    1739                            .dwattr $C$DW$100, DW_AT_name("V")
    1740                            .dwattr $C$DW$100, DW_AT_TI_symbol_name("V")
    1741                            .dwattr $C$DW$100, DW_AT_bit_offset(0x03)
    1742                            .dwattr $C$DW$100, DW_AT_bit_size(0x01)
    1743                            .dwattr $C$DW$100, DW_AT_data_member_location[DW_OP_plus_uconst 0x0]
    1744                            .dwattr $C$DW$100, DW_AT_accessibility(DW_ACCESS_public)
    1745                            .dwattr $C$DW$100, DW_AT_decl_file("/Users/jadedh/ti/tirex-content/simplelink_msp432_sdk_1_20_
    1746                            .dwattr $C$DW$100, DW_AT_decl_line(0x178)
    1747                            .dwattr $C$DW$100, DW_AT_decl_column(0x0e)
    1748                    
    1749                    $C$DW$101       .dwtag  DW_TAG_member
TI ARM Assembler Unix v16.9.0 Mon Apr  3 01:00:07 2017

Tools Copyright (c) 1996-2015 Texas Instruments Incorporated
joystick_draw3.asm                                                   PAGE   33

    1750                            .dwattr $C$DW$101, DW_AT_type(*$C$DW$T$25)
    1751                            .dwattr $C$DW$101, DW_AT_name("C")
    1752                            .dwattr $C$DW$101, DW_AT_TI_symbol_name("C")
    1753                            .dwattr $C$DW$101, DW_AT_bit_offset(0x02)
    1754                            .dwattr $C$DW$101, DW_AT_bit_size(0x01)
    1755                            .dwattr $C$DW$101, DW_AT_data_member_location[DW_OP_plus_uconst 0x0]
    1756                            .dwattr $C$DW$101, DW_AT_accessibility(DW_ACCESS_public)
    1757                            .dwattr $C$DW$101, DW_AT_decl_file("/Users/jadedh/ti/tirex-content/simplelink_msp432_sdk_1_20_
    1758                            .dwattr $C$DW$101, DW_AT_decl_line(0x179)
    1759                            .dwattr $C$DW$101, DW_AT_decl_column(0x0e)
    1760                    
    1761                    $C$DW$102       .dwtag  DW_TAG_member
    1762                            .dwattr $C$DW$102, DW_AT_type(*$C$DW$T$25)
    1763                            .dwattr $C$DW$102, DW_AT_name("Z")
    1764                            .dwattr $C$DW$102, DW_AT_TI_symbol_name("Z")
    1765                            .dwattr $C$DW$102, DW_AT_bit_offset(0x01)
    1766                            .dwattr $C$DW$102, DW_AT_bit_size(0x01)
    1767                            .dwattr $C$DW$102, DW_AT_data_member_location[DW_OP_plus_uconst 0x0]
    1768                            .dwattr $C$DW$102, DW_AT_accessibility(DW_ACCESS_public)
    1769                            .dwattr $C$DW$102, DW_AT_decl_file("/Users/jadedh/ti/tirex-content/simplelink_msp432_sdk_1_20_
    1770                            .dwattr $C$DW$102, DW_AT_decl_line(0x17a)
    1771                            .dwattr $C$DW$102, DW_AT_decl_column(0x0e)
    1772                    
    1773                    $C$DW$103       .dwtag  DW_TAG_member
    1774                            .dwattr $C$DW$103, DW_AT_type(*$C$DW$T$25)
    1775                            .dwattr $C$DW$103, DW_AT_name("N")
    1776                            .dwattr $C$DW$103, DW_AT_TI_symbol_name("N")
    1777                            .dwattr $C$DW$103, DW_AT_bit_offset(0x00)
    1778                            .dwattr $C$DW$103, DW_AT_bit_size(0x01)
    1779                            .dwattr $C$DW$103, DW_AT_data_member_location[DW_OP_plus_uconst 0x0]
    1780                            .dwattr $C$DW$103, DW_AT_accessibility(DW_ACCESS_public)
    1781                            .dwattr $C$DW$103, DW_AT_decl_file("/Users/jadedh/ti/tirex-content/simplelink_msp432_sdk_1_20_
    1782                            .dwattr $C$DW$103, DW_AT_decl_line(0x17b)
    1783                            .dwattr $C$DW$103, DW_AT_decl_column(0x0e)
    1784                    
    1785                            .dwattr $C$DW$T$28, DW_AT_decl_file("/Users/jadedh/ti/tirex-content/simplelink_msp432_sdk_1_20
    1786                            .dwattr $C$DW$T$28, DW_AT_decl_line(0x170)
    1787                            .dwattr $C$DW$T$28, DW_AT_decl_column(0x03)
    1788                            .dwendtag $C$DW$T$28
    1789                    
    1790                    
    1791                    $C$DW$T$29      .dwtag  DW_TAG_structure_type
    1792                            .dwattr $C$DW$T$29, DW_AT_byte_size(0x04)
    1793                    $C$DW$104       .dwtag  DW_TAG_member
    1794                            .dwattr $C$DW$104, DW_AT_type(*$C$DW$T$25)
    1795                            .dwattr $C$DW$104, DW_AT_name("nPRIV")
    1796                            .dwattr $C$DW$104, DW_AT_TI_symbol_name("nPRIV")
    1797                            .dwattr $C$DW$104, DW_AT_bit_offset(0x1f)
    1798                            .dwattr $C$DW$104, DW_AT_bit_size(0x01)
    1799                            .dwattr $C$DW$104, DW_AT_data_member_location[DW_OP_plus_uconst 0x0]
    1800                            .dwattr $C$DW$104, DW_AT_accessibility(DW_ACCESS_public)
    1801                            .dwattr $C$DW$104, DW_AT_decl_file("/Users/jadedh/ti/tirex-content/simplelink_msp432_sdk_1_20_
    1802                            .dwattr $C$DW$104, DW_AT_decl_line(0x1a4)
    1803                            .dwattr $C$DW$104, DW_AT_decl_column(0x0e)
    1804                    
TI ARM Assembler Unix v16.9.0 Mon Apr  3 01:00:07 2017

Tools Copyright (c) 1996-2015 Texas Instruments Incorporated
joystick_draw3.asm                                                   PAGE   34

    1805                    $C$DW$105       .dwtag  DW_TAG_member
    1806                            .dwattr $C$DW$105, DW_AT_type(*$C$DW$T$25)
    1807                            .dwattr $C$DW$105, DW_AT_name("SPSEL")
    1808                            .dwattr $C$DW$105, DW_AT_TI_symbol_name("SPSEL")
    1809                            .dwattr $C$DW$105, DW_AT_bit_offset(0x1e)
    1810                            .dwattr $C$DW$105, DW_AT_bit_size(0x01)
    1811                            .dwattr $C$DW$105, DW_AT_data_member_location[DW_OP_plus_uconst 0x0]
    1812                            .dwattr $C$DW$105, DW_AT_accessibility(DW_ACCESS_public)
    1813                            .dwattr $C$DW$105, DW_AT_decl_file("/Users/jadedh/ti/tirex-content/simplelink_msp432_sdk_1_20_
    1814                            .dwattr $C$DW$105, DW_AT_decl_line(0x1a5)
    1815                            .dwattr $C$DW$105, DW_AT_decl_column(0x0e)
    1816                    
    1817                    $C$DW$106       .dwtag  DW_TAG_member
    1818                            .dwattr $C$DW$106, DW_AT_type(*$C$DW$T$25)
    1819                            .dwattr $C$DW$106, DW_AT_name("FPCA")
    1820                            .dwattr $C$DW$106, DW_AT_TI_symbol_name("FPCA")
    1821                            .dwattr $C$DW$106, DW_AT_bit_offset(0x1d)
    1822                            .dwattr $C$DW$106, DW_AT_bit_size(0x01)
    1823                            .dwattr $C$DW$106, DW_AT_data_member_location[DW_OP_plus_uconst 0x0]
    1824                            .dwattr $C$DW$106, DW_AT_accessibility(DW_ACCESS_public)
    1825                            .dwattr $C$DW$106, DW_AT_decl_file("/Users/jadedh/ti/tirex-content/simplelink_msp432_sdk_1_20_
    1826                            .dwattr $C$DW$106, DW_AT_decl_line(0x1a6)
    1827                            .dwattr $C$DW$106, DW_AT_decl_column(0x0e)
    1828                    
    1829                    $C$DW$107       .dwtag  DW_TAG_member
    1830                            .dwattr $C$DW$107, DW_AT_type(*$C$DW$T$25)
    1831                            .dwattr $C$DW$107, DW_AT_name("_reserved0")
    1832                            .dwattr $C$DW$107, DW_AT_TI_symbol_name("_reserved0")
    1833                            .dwattr $C$DW$107, DW_AT_bit_offset(0x00)
    1834                            .dwattr $C$DW$107, DW_AT_bit_size(0x1d)
    1835                            .dwattr $C$DW$107, DW_AT_data_member_location[DW_OP_plus_uconst 0x0]
    1836                            .dwattr $C$DW$107, DW_AT_accessibility(DW_ACCESS_public)
    1837                            .dwattr $C$DW$107, DW_AT_decl_file("/Users/jadedh/ti/tirex-content/simplelink_msp432_sdk_1_20_
    1838                            .dwattr $C$DW$107, DW_AT_decl_line(0x1a7)
    1839                            .dwattr $C$DW$107, DW_AT_decl_column(0x0e)
    1840                    
    1841                            .dwattr $C$DW$T$29, DW_AT_decl_file("/Users/jadedh/ti/tirex-content/simplelink_msp432_sdk_1_20
    1842                            .dwattr $C$DW$T$29, DW_AT_decl_line(0x1a3)
    1843                            .dwattr $C$DW$T$29, DW_AT_decl_column(0x03)
    1844                            .dwendtag $C$DW$T$29
    1845                    
    1846                    
    1847                    $C$DW$T$38      .dwtag  DW_TAG_structure_type
    1848                            .dwattr $C$DW$T$38, DW_AT_byte_size(0xe04)
    1849                    $C$DW$108       .dwtag  DW_TAG_member
    1850                            .dwattr $C$DW$108, DW_AT_type(*$C$DW$T$31)
    1851                            .dwattr $C$DW$108, DW_AT_name("ISER")
    1852                            .dwattr $C$DW$108, DW_AT_TI_symbol_name("ISER")
    1853                            .dwattr $C$DW$108, DW_AT_data_member_location[DW_OP_plus_uconst 0x0]
    1854                            .dwattr $C$DW$108, DW_AT_accessibility(DW_ACCESS_public)
    1855                            .dwattr $C$DW$108, DW_AT_decl_file("/Users/jadedh/ti/tirex-content/simplelink_msp432_sdk_1_20_
    1856                            .dwattr $C$DW$108, DW_AT_decl_line(0x1c5)
    1857                            .dwattr $C$DW$108, DW_AT_decl_column(0x12)
    1858                    
    1859                    $C$DW$109       .dwtag  DW_TAG_member
TI ARM Assembler Unix v16.9.0 Mon Apr  3 01:00:07 2017

Tools Copyright (c) 1996-2015 Texas Instruments Incorporated
joystick_draw3.asm                                                   PAGE   35

    1860                            .dwattr $C$DW$109, DW_AT_type(*$C$DW$T$32)
    1861                            .dwattr $C$DW$109, DW_AT_name("RESERVED0")
    1862                            .dwattr $C$DW$109, DW_AT_TI_symbol_name("RESERVED0")
    1863                            .dwattr $C$DW$109, DW_AT_data_member_location[DW_OP_plus_uconst 0x20]
    1864                            .dwattr $C$DW$109, DW_AT_accessibility(DW_ACCESS_public)
    1865                            .dwattr $C$DW$109, DW_AT_decl_file("/Users/jadedh/ti/tirex-content/simplelink_msp432_sdk_1_20_
    1866                            .dwattr $C$DW$109, DW_AT_decl_line(0x1c6)
    1867                            .dwattr $C$DW$109, DW_AT_decl_column(0x12)
    1868                    
    1869                    $C$DW$110       .dwtag  DW_TAG_member
    1870                            .dwattr $C$DW$110, DW_AT_type(*$C$DW$T$31)
    1871                            .dwattr $C$DW$110, DW_AT_name("ICER")
    1872                            .dwattr $C$DW$110, DW_AT_TI_symbol_name("ICER")
    1873                            .dwattr $C$DW$110, DW_AT_data_member_location[DW_OP_plus_uconst 0x80]
    1874                            .dwattr $C$DW$110, DW_AT_accessibility(DW_ACCESS_public)
    1875                            .dwattr $C$DW$110, DW_AT_decl_file("/Users/jadedh/ti/tirex-content/simplelink_msp432_sdk_1_20_
    1876                            .dwattr $C$DW$110, DW_AT_decl_line(0x1c7)
    1877                            .dwattr $C$DW$110, DW_AT_decl_column(0x12)
    1878                    
    1879                    $C$DW$111       .dwtag  DW_TAG_member
    1880                            .dwattr $C$DW$111, DW_AT_type(*$C$DW$T$32)
    1881                            .dwattr $C$DW$111, DW_AT_name("RSERVED1")
    1882                            .dwattr $C$DW$111, DW_AT_TI_symbol_name("RSERVED1")
    1883                            .dwattr $C$DW$111, DW_AT_data_member_location[DW_OP_plus_uconst 0xa0]
    1884                            .dwattr $C$DW$111, DW_AT_accessibility(DW_ACCESS_public)
    1885                            .dwattr $C$DW$111, DW_AT_decl_file("/Users/jadedh/ti/tirex-content/simplelink_msp432_sdk_1_20_
    1886                            .dwattr $C$DW$111, DW_AT_decl_line(0x1c8)
    1887                            .dwattr $C$DW$111, DW_AT_decl_column(0x12)
    1888                    
    1889                    $C$DW$112       .dwtag  DW_TAG_member
    1890                            .dwattr $C$DW$112, DW_AT_type(*$C$DW$T$31)
    1891                            .dwattr $C$DW$112, DW_AT_name("ISPR")
    1892                            .dwattr $C$DW$112, DW_AT_TI_symbol_name("ISPR")
    1893                            .dwattr $C$DW$112, DW_AT_data_member_location[DW_OP_plus_uconst 0x100]
    1894                            .dwattr $C$DW$112, DW_AT_accessibility(DW_ACCESS_public)
    1895                            .dwattr $C$DW$112, DW_AT_decl_file("/Users/jadedh/ti/tirex-content/simplelink_msp432_sdk_1_20_
    1896                            .dwattr $C$DW$112, DW_AT_decl_line(0x1c9)
    1897                            .dwattr $C$DW$112, DW_AT_decl_column(0x12)
    1898                    
    1899                    $C$DW$113       .dwtag  DW_TAG_member
    1900                            .dwattr $C$DW$113, DW_AT_type(*$C$DW$T$32)
    1901                            .dwattr $C$DW$113, DW_AT_name("RESERVED2")
    1902                            .dwattr $C$DW$113, DW_AT_TI_symbol_name("RESERVED2")
    1903                            .dwattr $C$DW$113, DW_AT_data_member_location[DW_OP_plus_uconst 0x120]
    1904                            .dwattr $C$DW$113, DW_AT_accessibility(DW_ACCESS_public)
    1905                            .dwattr $C$DW$113, DW_AT_decl_file("/Users/jadedh/ti/tirex-content/simplelink_msp432_sdk_1_20_
    1906                            .dwattr $C$DW$113, DW_AT_decl_line(0x1ca)
    1907                            .dwattr $C$DW$113, DW_AT_decl_column(0x12)
    1908                    
    1909                    $C$DW$114       .dwtag  DW_TAG_member
    1910                            .dwattr $C$DW$114, DW_AT_type(*$C$DW$T$31)
    1911                            .dwattr $C$DW$114, DW_AT_name("ICPR")
    1912                            .dwattr $C$DW$114, DW_AT_TI_symbol_name("ICPR")
    1913                            .dwattr $C$DW$114, DW_AT_data_member_location[DW_OP_plus_uconst 0x180]
    1914                            .dwattr $C$DW$114, DW_AT_accessibility(DW_ACCESS_public)
TI ARM Assembler Unix v16.9.0 Mon Apr  3 01:00:07 2017

Tools Copyright (c) 1996-2015 Texas Instruments Incorporated
joystick_draw3.asm                                                   PAGE   36

    1915                            .dwattr $C$DW$114, DW_AT_decl_file("/Users/jadedh/ti/tirex-content/simplelink_msp432_sdk_1_20_
    1916                            .dwattr $C$DW$114, DW_AT_decl_line(0x1cb)
    1917                            .dwattr $C$DW$114, DW_AT_decl_column(0x12)
    1918                    
    1919                    $C$DW$115       .dwtag  DW_TAG_member
    1920                            .dwattr $C$DW$115, DW_AT_type(*$C$DW$T$32)
    1921                            .dwattr $C$DW$115, DW_AT_name("RESERVED3")
    1922                            .dwattr $C$DW$115, DW_AT_TI_symbol_name("RESERVED3")
    1923                            .dwattr $C$DW$115, DW_AT_data_member_location[DW_OP_plus_uconst 0x1a0]
    1924                            .dwattr $C$DW$115, DW_AT_accessibility(DW_ACCESS_public)
    1925                            .dwattr $C$DW$115, DW_AT_decl_file("/Users/jadedh/ti/tirex-content/simplelink_msp432_sdk_1_20_
    1926                            .dwattr $C$DW$115, DW_AT_decl_line(0x1cc)
    1927                            .dwattr $C$DW$115, DW_AT_decl_column(0x12)
    1928                    
    1929                    $C$DW$116       .dwtag  DW_TAG_member
    1930                            .dwattr $C$DW$116, DW_AT_type(*$C$DW$T$31)
    1931                            .dwattr $C$DW$116, DW_AT_name("IABR")
    1932                            .dwattr $C$DW$116, DW_AT_TI_symbol_name("IABR")
    1933                            .dwattr $C$DW$116, DW_AT_data_member_location[DW_OP_plus_uconst 0x200]
    1934                            .dwattr $C$DW$116, DW_AT_accessibility(DW_ACCESS_public)
    1935                            .dwattr $C$DW$116, DW_AT_decl_file("/Users/jadedh/ti/tirex-content/simplelink_msp432_sdk_1_20_
    1936                            .dwattr $C$DW$116, DW_AT_decl_line(0x1cd)
    1937                            .dwattr $C$DW$116, DW_AT_decl_column(0x12)
    1938                    
    1939                    $C$DW$117       .dwtag  DW_TAG_member
    1940                            .dwattr $C$DW$117, DW_AT_type(*$C$DW$T$33)
    1941                            .dwattr $C$DW$117, DW_AT_name("RESERVED4")
    1942                            .dwattr $C$DW$117, DW_AT_TI_symbol_name("RESERVED4")
    1943                            .dwattr $C$DW$117, DW_AT_data_member_location[DW_OP_plus_uconst 0x220]
    1944                            .dwattr $C$DW$117, DW_AT_accessibility(DW_ACCESS_public)
    1945                            .dwattr $C$DW$117, DW_AT_decl_file("/Users/jadedh/ti/tirex-content/simplelink_msp432_sdk_1_20_
    1946                            .dwattr $C$DW$117, DW_AT_decl_line(0x1ce)
    1947                            .dwattr $C$DW$117, DW_AT_decl_column(0x12)
    1948                    
    1949                    $C$DW$118       .dwtag  DW_TAG_member
    1950                            .dwattr $C$DW$118, DW_AT_type(*$C$DW$T$36)
    1951                            .dwattr $C$DW$118, DW_AT_name("IP")
    1952                            .dwattr $C$DW$118, DW_AT_TI_symbol_name("IP")
    1953                            .dwattr $C$DW$118, DW_AT_data_member_location[DW_OP_plus_uconst 0x300]
    1954                            .dwattr $C$DW$118, DW_AT_accessibility(DW_ACCESS_public)
    1955                            .dwattr $C$DW$118, DW_AT_decl_file("/Users/jadedh/ti/tirex-content/simplelink_msp432_sdk_1_20_
    1956                            .dwattr $C$DW$118, DW_AT_decl_line(0x1cf)
    1957                            .dwattr $C$DW$118, DW_AT_decl_column(0x12)
    1958                    
    1959                    $C$DW$119       .dwtag  DW_TAG_member
    1960                            .dwattr $C$DW$119, DW_AT_type(*$C$DW$T$37)
    1961                            .dwattr $C$DW$119, DW_AT_name("RESERVED5")
    1962                            .dwattr $C$DW$119, DW_AT_TI_symbol_name("RESERVED5")
    1963                            .dwattr $C$DW$119, DW_AT_data_member_location[DW_OP_plus_uconst 0x3f0]
    1964                            .dwattr $C$DW$119, DW_AT_accessibility(DW_ACCESS_public)
    1965                            .dwattr $C$DW$119, DW_AT_decl_file("/Users/jadedh/ti/tirex-content/simplelink_msp432_sdk_1_20_
    1966                            .dwattr $C$DW$119, DW_AT_decl_line(0x1d0)
    1967                            .dwattr $C$DW$119, DW_AT_decl_column(0x12)
    1968                    
    1969                    $C$DW$120       .dwtag  DW_TAG_member
TI ARM Assembler Unix v16.9.0 Mon Apr  3 01:00:07 2017

Tools Copyright (c) 1996-2015 Texas Instruments Incorporated
joystick_draw3.asm                                                   PAGE   37

    1970                            .dwattr $C$DW$120, DW_AT_type(*$C$DW$T$30)
    1971                            .dwattr $C$DW$120, DW_AT_name("STIR")
    1972                            .dwattr $C$DW$120, DW_AT_TI_symbol_name("STIR")
    1973                            .dwattr $C$DW$120, DW_AT_data_member_location[DW_OP_plus_uconst 0xe00]
    1974                            .dwattr $C$DW$120, DW_AT_accessibility(DW_ACCESS_public)
    1975                            .dwattr $C$DW$120, DW_AT_decl_file("/Users/jadedh/ti/tirex-content/simplelink_msp432_sdk_1_20_
    1976                            .dwattr $C$DW$120, DW_AT_decl_line(0x1d1)
    1977                            .dwattr $C$DW$120, DW_AT_decl_column(0x12)
    1978                    
    1979                            .dwattr $C$DW$T$38, DW_AT_decl_file("/Users/jadedh/ti/tirex-content/simplelink_msp432_sdk_1_20
    1980                            .dwattr $C$DW$T$38, DW_AT_decl_line(0x1c4)
    1981                            .dwattr $C$DW$T$38, DW_AT_decl_column(0x01)
    1982                            .dwendtag $C$DW$T$38
    1983                    
    1984                    $C$DW$T$194     .dwtag  DW_TAG_typedef
    1985                            .dwattr $C$DW$T$194, DW_AT_name("NVIC_Type")
    1986                            .dwattr $C$DW$T$194, DW_AT_type(*$C$DW$T$38)
    1987                            .dwattr $C$DW$T$194, DW_AT_language(DW_LANG_C)
    1988                            .dwattr $C$DW$T$194, DW_AT_decl_file("/Users/jadedh/ti/tirex-content/simplelink_msp432_sdk_1_2
    1989                            .dwattr $C$DW$T$194, DW_AT_decl_line(0x1d2)
    1990                            .dwattr $C$DW$T$194, DW_AT_decl_column(0x04)
    1991                    
    1992                    
    1993                    $C$DW$T$45      .dwtag  DW_TAG_structure_type
    1994                            .dwattr $C$DW$T$45, DW_AT_byte_size(0x8c)
    1995                    $C$DW$121       .dwtag  DW_TAG_member
    1996                            .dwattr $C$DW$121, DW_AT_type(*$C$DW$T$39)
    1997                            .dwattr $C$DW$121, DW_AT_name("CPUID")
    1998                            .dwattr $C$DW$121, DW_AT_TI_symbol_name("CPUID")
    1999                            .dwattr $C$DW$121, DW_AT_data_member_location[DW_OP_plus_uconst 0x0]
    2000                            .dwattr $C$DW$121, DW_AT_accessibility(DW_ACCESS_public)
    2001                            .dwattr $C$DW$121, DW_AT_decl_file("/Users/jadedh/ti/tirex-content/simplelink_msp432_sdk_1_20_
    2002                            .dwattr $C$DW$121, DW_AT_decl_line(0x1e7)
    2003                            .dwattr $C$DW$121, DW_AT_decl_column(0x12)
    2004                    
    2005                    $C$DW$122       .dwtag  DW_TAG_member
    2006                            .dwattr $C$DW$122, DW_AT_type(*$C$DW$T$30)
    2007                            .dwattr $C$DW$122, DW_AT_name("ICSR")
    2008                            .dwattr $C$DW$122, DW_AT_TI_symbol_name("ICSR")
    2009                            .dwattr $C$DW$122, DW_AT_data_member_location[DW_OP_plus_uconst 0x4]
    2010                            .dwattr $C$DW$122, DW_AT_accessibility(DW_ACCESS_public)
    2011                            .dwattr $C$DW$122, DW_AT_decl_file("/Users/jadedh/ti/tirex-content/simplelink_msp432_sdk_1_20_
    2012                            .dwattr $C$DW$122, DW_AT_decl_line(0x1e8)
    2013                            .dwattr $C$DW$122, DW_AT_decl_column(0x12)
    2014                    
    2015                    $C$DW$123       .dwtag  DW_TAG_member
    2016                            .dwattr $C$DW$123, DW_AT_type(*$C$DW$T$30)
    2017                            .dwattr $C$DW$123, DW_AT_name("VTOR")
    2018                            .dwattr $C$DW$123, DW_AT_TI_symbol_name("VTOR")
    2019                            .dwattr $C$DW$123, DW_AT_data_member_location[DW_OP_plus_uconst 0x8]
    2020                            .dwattr $C$DW$123, DW_AT_accessibility(DW_ACCESS_public)
    2021                            .dwattr $C$DW$123, DW_AT_decl_file("/Users/jadedh/ti/tirex-content/simplelink_msp432_sdk_1_20_
    2022                            .dwattr $C$DW$123, DW_AT_decl_line(0x1e9)
    2023                            .dwattr $C$DW$123, DW_AT_decl_column(0x12)
    2024                    
TI ARM Assembler Unix v16.9.0 Mon Apr  3 01:00:07 2017

Tools Copyright (c) 1996-2015 Texas Instruments Incorporated
joystick_draw3.asm                                                   PAGE   38

    2025                    $C$DW$124       .dwtag  DW_TAG_member
    2026                            .dwattr $C$DW$124, DW_AT_type(*$C$DW$T$30)
    2027                            .dwattr $C$DW$124, DW_AT_name("AIRCR")
    2028                            .dwattr $C$DW$124, DW_AT_TI_symbol_name("AIRCR")
    2029                            .dwattr $C$DW$124, DW_AT_data_member_location[DW_OP_plus_uconst 0xc]
    2030                            .dwattr $C$DW$124, DW_AT_accessibility(DW_ACCESS_public)
    2031                            .dwattr $C$DW$124, DW_AT_decl_file("/Users/jadedh/ti/tirex-content/simplelink_msp432_sdk_1_20_
    2032                            .dwattr $C$DW$124, DW_AT_decl_line(0x1ea)
    2033                            .dwattr $C$DW$124, DW_AT_decl_column(0x12)
    2034                    
    2035                    $C$DW$125       .dwtag  DW_TAG_member
    2036                            .dwattr $C$DW$125, DW_AT_type(*$C$DW$T$30)
    2037                            .dwattr $C$DW$125, DW_AT_name("SCR")
    2038                            .dwattr $C$DW$125, DW_AT_TI_symbol_name("SCR")
    2039                            .dwattr $C$DW$125, DW_AT_data_member_location[DW_OP_plus_uconst 0x10]
    2040                            .dwattr $C$DW$125, DW_AT_accessibility(DW_ACCESS_public)
    2041                            .dwattr $C$DW$125, DW_AT_decl_file("/Users/jadedh/ti/tirex-content/simplelink_msp432_sdk_1_20_
    2042                            .dwattr $C$DW$125, DW_AT_decl_line(0x1eb)
    2043                            .dwattr $C$DW$125, DW_AT_decl_column(0x12)
    2044                    
    2045                    $C$DW$126       .dwtag  DW_TAG_member
    2046                            .dwattr $C$DW$126, DW_AT_type(*$C$DW$T$30)
    2047                            .dwattr $C$DW$126, DW_AT_name("CCR")
    2048                            .dwattr $C$DW$126, DW_AT_TI_symbol_name("CCR")
    2049                            .dwattr $C$DW$126, DW_AT_data_member_location[DW_OP_plus_uconst 0x14]
    2050                            .dwattr $C$DW$126, DW_AT_accessibility(DW_ACCESS_public)
    2051                            .dwattr $C$DW$126, DW_AT_decl_file("/Users/jadedh/ti/tirex-content/simplelink_msp432_sdk_1_20_
    2052                            .dwattr $C$DW$126, DW_AT_decl_line(0x1ec)
    2053                            .dwattr $C$DW$126, DW_AT_decl_column(0x12)
    2054                    
    2055                    $C$DW$127       .dwtag  DW_TAG_member
    2056                            .dwattr $C$DW$127, DW_AT_type(*$C$DW$T$40)
    2057                            .dwattr $C$DW$127, DW_AT_name("SHP")
    2058                            .dwattr $C$DW$127, DW_AT_TI_symbol_name("SHP")
    2059                            .dwattr $C$DW$127, DW_AT_data_member_location[DW_OP_plus_uconst 0x18]
    2060                            .dwattr $C$DW$127, DW_AT_accessibility(DW_ACCESS_public)
    2061                            .dwattr $C$DW$127, DW_AT_decl_file("/Users/jadedh/ti/tirex-content/simplelink_msp432_sdk_1_20_
    2062                            .dwattr $C$DW$127, DW_AT_decl_line(0x1ed)
    2063                            .dwattr $C$DW$127, DW_AT_decl_column(0x12)
    2064                    
    2065                    $C$DW$128       .dwtag  DW_TAG_member
    2066                            .dwattr $C$DW$128, DW_AT_type(*$C$DW$T$30)
    2067                            .dwattr $C$DW$128, DW_AT_name("SHCSR")
    2068                            .dwattr $C$DW$128, DW_AT_TI_symbol_name("SHCSR")
    2069                            .dwattr $C$DW$128, DW_AT_data_member_location[DW_OP_plus_uconst 0x24]
    2070                            .dwattr $C$DW$128, DW_AT_accessibility(DW_ACCESS_public)
    2071                            .dwattr $C$DW$128, DW_AT_decl_file("/Users/jadedh/ti/tirex-content/simplelink_msp432_sdk_1_20_
    2072                            .dwattr $C$DW$128, DW_AT_decl_line(0x1ee)
    2073                            .dwattr $C$DW$128, DW_AT_decl_column(0x12)
    2074                    
    2075                    $C$DW$129       .dwtag  DW_TAG_member
    2076                            .dwattr $C$DW$129, DW_AT_type(*$C$DW$T$30)
    2077                            .dwattr $C$DW$129, DW_AT_name("CFSR")
    2078                            .dwattr $C$DW$129, DW_AT_TI_symbol_name("CFSR")
    2079                            .dwattr $C$DW$129, DW_AT_data_member_location[DW_OP_plus_uconst 0x28]
TI ARM Assembler Unix v16.9.0 Mon Apr  3 01:00:07 2017

Tools Copyright (c) 1996-2015 Texas Instruments Incorporated
joystick_draw3.asm                                                   PAGE   39

    2080                            .dwattr $C$DW$129, DW_AT_accessibility(DW_ACCESS_public)
    2081                            .dwattr $C$DW$129, DW_AT_decl_file("/Users/jadedh/ti/tirex-content/simplelink_msp432_sdk_1_20_
    2082                            .dwattr $C$DW$129, DW_AT_decl_line(0x1ef)
    2083                            .dwattr $C$DW$129, DW_AT_decl_column(0x12)
    2084                    
    2085                    $C$DW$130       .dwtag  DW_TAG_member
    2086                            .dwattr $C$DW$130, DW_AT_type(*$C$DW$T$30)
    2087                            .dwattr $C$DW$130, DW_AT_name("HFSR")
    2088                            .dwattr $C$DW$130, DW_AT_TI_symbol_name("HFSR")
    2089                            .dwattr $C$DW$130, DW_AT_data_member_location[DW_OP_plus_uconst 0x2c]
    2090                            .dwattr $C$DW$130, DW_AT_accessibility(DW_ACCESS_public)
    2091                            .dwattr $C$DW$130, DW_AT_decl_file("/Users/jadedh/ti/tirex-content/simplelink_msp432_sdk_1_20_
    2092                            .dwattr $C$DW$130, DW_AT_decl_line(0x1f0)
    2093                            .dwattr $C$DW$130, DW_AT_decl_column(0x12)
    2094                    
    2095                    $C$DW$131       .dwtag  DW_TAG_member
    2096                            .dwattr $C$DW$131, DW_AT_type(*$C$DW$T$30)
    2097                            .dwattr $C$DW$131, DW_AT_name("DFSR")
    2098                            .dwattr $C$DW$131, DW_AT_TI_symbol_name("DFSR")
    2099                            .dwattr $C$DW$131, DW_AT_data_member_location[DW_OP_plus_uconst 0x30]
    2100                            .dwattr $C$DW$131, DW_AT_accessibility(DW_ACCESS_public)
    2101                            .dwattr $C$DW$131, DW_AT_decl_file("/Users/jadedh/ti/tirex-content/simplelink_msp432_sdk_1_20_
    2102                            .dwattr $C$DW$131, DW_AT_decl_line(0x1f1)
    2103                            .dwattr $C$DW$131, DW_AT_decl_column(0x12)
    2104                    
    2105                    $C$DW$132       .dwtag  DW_TAG_member
    2106                            .dwattr $C$DW$132, DW_AT_type(*$C$DW$T$30)
    2107                            .dwattr $C$DW$132, DW_AT_name("MMFAR")
    2108                            .dwattr $C$DW$132, DW_AT_TI_symbol_name("MMFAR")
    2109                            .dwattr $C$DW$132, DW_AT_data_member_location[DW_OP_plus_uconst 0x34]
    2110                            .dwattr $C$DW$132, DW_AT_accessibility(DW_ACCESS_public)
    2111                            .dwattr $C$DW$132, DW_AT_decl_file("/Users/jadedh/ti/tirex-content/simplelink_msp432_sdk_1_20_
    2112                            .dwattr $C$DW$132, DW_AT_decl_line(0x1f2)
    2113                            .dwattr $C$DW$132, DW_AT_decl_column(0x12)
    2114                    
    2115                    $C$DW$133       .dwtag  DW_TAG_member
    2116                            .dwattr $C$DW$133, DW_AT_type(*$C$DW$T$30)
    2117                            .dwattr $C$DW$133, DW_AT_name("BFAR")
    2118                            .dwattr $C$DW$133, DW_AT_TI_symbol_name("BFAR")
    2119                            .dwattr $C$DW$133, DW_AT_data_member_location[DW_OP_plus_uconst 0x38]
    2120                            .dwattr $C$DW$133, DW_AT_accessibility(DW_ACCESS_public)
    2121                            .dwattr $C$DW$133, DW_AT_decl_file("/Users/jadedh/ti/tirex-content/simplelink_msp432_sdk_1_20_
    2122                            .dwattr $C$DW$133, DW_AT_decl_line(0x1f3)
    2123                            .dwattr $C$DW$133, DW_AT_decl_column(0x12)
    2124                    
    2125                    $C$DW$134       .dwtag  DW_TAG_member
    2126                            .dwattr $C$DW$134, DW_AT_type(*$C$DW$T$30)
    2127                            .dwattr $C$DW$134, DW_AT_name("AFSR")
    2128                            .dwattr $C$DW$134, DW_AT_TI_symbol_name("AFSR")
    2129                            .dwattr $C$DW$134, DW_AT_data_member_location[DW_OP_plus_uconst 0x3c]
    2130                            .dwattr $C$DW$134, DW_AT_accessibility(DW_ACCESS_public)
    2131                            .dwattr $C$DW$134, DW_AT_decl_file("/Users/jadedh/ti/tirex-content/simplelink_msp432_sdk_1_20_
    2132                            .dwattr $C$DW$134, DW_AT_decl_line(0x1f4)
    2133                            .dwattr $C$DW$134, DW_AT_decl_column(0x12)
    2134                    
TI ARM Assembler Unix v16.9.0 Mon Apr  3 01:00:07 2017

Tools Copyright (c) 1996-2015 Texas Instruments Incorporated
joystick_draw3.asm                                                   PAGE   40

    2135                    $C$DW$135       .dwtag  DW_TAG_member
    2136                            .dwattr $C$DW$135, DW_AT_type(*$C$DW$T$41)
    2137                            .dwattr $C$DW$135, DW_AT_name("PFR")
    2138                            .dwattr $C$DW$135, DW_AT_TI_symbol_name("PFR")
    2139                            .dwattr $C$DW$135, DW_AT_data_member_location[DW_OP_plus_uconst 0x40]
    2140                            .dwattr $C$DW$135, DW_AT_accessibility(DW_ACCESS_public)
    2141                            .dwattr $C$DW$135, DW_AT_decl_file("/Users/jadedh/ti/tirex-content/simplelink_msp432_sdk_1_20_
    2142                            .dwattr $C$DW$135, DW_AT_decl_line(0x1f5)
    2143                            .dwattr $C$DW$135, DW_AT_decl_column(0x12)
    2144                    
    2145                    $C$DW$136       .dwtag  DW_TAG_member
    2146                            .dwattr $C$DW$136, DW_AT_type(*$C$DW$T$39)
    2147                            .dwattr $C$DW$136, DW_AT_name("DFR")
    2148                            .dwattr $C$DW$136, DW_AT_TI_symbol_name("DFR")
    2149                            .dwattr $C$DW$136, DW_AT_data_member_location[DW_OP_plus_uconst 0x48]
    2150                            .dwattr $C$DW$136, DW_AT_accessibility(DW_ACCESS_public)
    2151                            .dwattr $C$DW$136, DW_AT_decl_file("/Users/jadedh/ti/tirex-content/simplelink_msp432_sdk_1_20_
    2152                            .dwattr $C$DW$136, DW_AT_decl_line(0x1f6)
    2153                            .dwattr $C$DW$136, DW_AT_decl_column(0x12)
    2154                    
    2155                    $C$DW$137       .dwtag  DW_TAG_member
    2156                            .dwattr $C$DW$137, DW_AT_type(*$C$DW$T$39)
    2157                            .dwattr $C$DW$137, DW_AT_name("ADR")
    2158                            .dwattr $C$DW$137, DW_AT_TI_symbol_name("ADR")
    2159                            .dwattr $C$DW$137, DW_AT_data_member_location[DW_OP_plus_uconst 0x4c]
    2160                            .dwattr $C$DW$137, DW_AT_accessibility(DW_ACCESS_public)
    2161                            .dwattr $C$DW$137, DW_AT_decl_file("/Users/jadedh/ti/tirex-content/simplelink_msp432_sdk_1_20_
    2162                            .dwattr $C$DW$137, DW_AT_decl_line(0x1f7)
    2163                            .dwattr $C$DW$137, DW_AT_decl_column(0x12)
    2164                    
    2165                    $C$DW$138       .dwtag  DW_TAG_member
    2166                            .dwattr $C$DW$138, DW_AT_type(*$C$DW$T$42)
    2167                            .dwattr $C$DW$138, DW_AT_name("MMFR")
    2168                            .dwattr $C$DW$138, DW_AT_TI_symbol_name("MMFR")
    2169                            .dwattr $C$DW$138, DW_AT_data_member_location[DW_OP_plus_uconst 0x50]
    2170                            .dwattr $C$DW$138, DW_AT_accessibility(DW_ACCESS_public)
    2171                            .dwattr $C$DW$138, DW_AT_decl_file("/Users/jadedh/ti/tirex-content/simplelink_msp432_sdk_1_20_
    2172                            .dwattr $C$DW$138, DW_AT_decl_line(0x1f8)
    2173                            .dwattr $C$DW$138, DW_AT_decl_column(0x12)
    2174                    
    2175                    $C$DW$139       .dwtag  DW_TAG_member
    2176                            .dwattr $C$DW$139, DW_AT_type(*$C$DW$T$43)
    2177                            .dwattr $C$DW$139, DW_AT_name("ISAR")
    2178                            .dwattr $C$DW$139, DW_AT_TI_symbol_name("ISAR")
    2179                            .dwattr $C$DW$139, DW_AT_data_member_location[DW_OP_plus_uconst 0x60]
    2180                            .dwattr $C$DW$139, DW_AT_accessibility(DW_ACCESS_public)
    2181                            .dwattr $C$DW$139, DW_AT_decl_file("/Users/jadedh/ti/tirex-content/simplelink_msp432_sdk_1_20_
    2182                            .dwattr $C$DW$139, DW_AT_decl_line(0x1f9)
    2183                            .dwattr $C$DW$139, DW_AT_decl_column(0x12)
    2184                    
    2185                    $C$DW$140       .dwtag  DW_TAG_member
    2186                            .dwattr $C$DW$140, DW_AT_type(*$C$DW$T$44)
    2187                            .dwattr $C$DW$140, DW_AT_name("RESERVED0")
    2188                            .dwattr $C$DW$140, DW_AT_TI_symbol_name("RESERVED0")
    2189                            .dwattr $C$DW$140, DW_AT_data_member_location[DW_OP_plus_uconst 0x74]
TI ARM Assembler Unix v16.9.0 Mon Apr  3 01:00:07 2017

Tools Copyright (c) 1996-2015 Texas Instruments Incorporated
joystick_draw3.asm                                                   PAGE   41

    2190                            .dwattr $C$DW$140, DW_AT_accessibility(DW_ACCESS_public)
    2191                            .dwattr $C$DW$140, DW_AT_decl_file("/Users/jadedh/ti/tirex-content/simplelink_msp432_sdk_1_20_
    2192                            .dwattr $C$DW$140, DW_AT_decl_line(0x1fa)
    2193                            .dwattr $C$DW$140, DW_AT_decl_column(0x12)
    2194                    
    2195                    $C$DW$141       .dwtag  DW_TAG_member
    2196                            .dwattr $C$DW$141, DW_AT_type(*$C$DW$T$30)
    2197                            .dwattr $C$DW$141, DW_AT_name("CPACR")
    2198                            .dwattr $C$DW$141, DW_AT_TI_symbol_name("CPACR")
    2199                            .dwattr $C$DW$141, DW_AT_data_member_location[DW_OP_plus_uconst 0x88]
    2200                            .dwattr $C$DW$141, DW_AT_accessibility(DW_ACCESS_public)
    2201                            .dwattr $C$DW$141, DW_AT_decl_file("/Users/jadedh/ti/tirex-content/simplelink_msp432_sdk_1_20_
    2202                            .dwattr $C$DW$141, DW_AT_decl_line(0x1fb)
    2203                            .dwattr $C$DW$141, DW_AT_decl_column(0x12)
    2204                    
    2205                            .dwattr $C$DW$T$45, DW_AT_decl_file("/Users/jadedh/ti/tirex-content/simplelink_msp432_sdk_1_20
    2206                            .dwattr $C$DW$T$45, DW_AT_decl_line(0x1e6)
    2207                            .dwattr $C$DW$T$45, DW_AT_decl_column(0x01)
    2208                            .dwendtag $C$DW$T$45
    2209                    
    2210                    $C$DW$T$195     .dwtag  DW_TAG_typedef
    2211                            .dwattr $C$DW$T$195, DW_AT_name("SCB_Type")
    2212                            .dwattr $C$DW$T$195, DW_AT_type(*$C$DW$T$45)
    2213                            .dwattr $C$DW$T$195, DW_AT_language(DW_LANG_C)
    2214                            .dwattr $C$DW$T$195, DW_AT_decl_file("/Users/jadedh/ti/tirex-content/simplelink_msp432_sdk_1_2
    2215                            .dwattr $C$DW$T$195, DW_AT_decl_line(0x1fc)
    2216                            .dwattr $C$DW$T$195, DW_AT_decl_column(0x03)
    2217                    
    2218                    
    2219                    $C$DW$T$47      .dwtag  DW_TAG_structure_type
    2220                            .dwattr $C$DW$T$47, DW_AT_byte_size(0x0c)
    2221                    $C$DW$142       .dwtag  DW_TAG_member
    2222                            .dwattr $C$DW$142, DW_AT_type(*$C$DW$T$46)
    2223                            .dwattr $C$DW$142, DW_AT_name("RESERVED0")
    2224                            .dwattr $C$DW$142, DW_AT_TI_symbol_name("RESERVED0")
    2225                            .dwattr $C$DW$142, DW_AT_data_member_location[DW_OP_plus_uconst 0x0]
    2226                            .dwattr $C$DW$142, DW_AT_accessibility(DW_ACCESS_public)
    2227                            .dwattr $C$DW$142, DW_AT_decl_file("/Users/jadedh/ti/tirex-content/simplelink_msp432_sdk_1_20_
    2228                            .dwattr $C$DW$142, DW_AT_decl_line(0x2c2)
    2229                            .dwattr $C$DW$142, DW_AT_decl_column(0x12)
    2230                    
    2231                    $C$DW$143       .dwtag  DW_TAG_member
    2232                            .dwattr $C$DW$143, DW_AT_type(*$C$DW$T$39)
    2233                            .dwattr $C$DW$143, DW_AT_name("ICTR")
    2234                            .dwattr $C$DW$143, DW_AT_TI_symbol_name("ICTR")
    2235                            .dwattr $C$DW$143, DW_AT_data_member_location[DW_OP_plus_uconst 0x4]
    2236                            .dwattr $C$DW$143, DW_AT_accessibility(DW_ACCESS_public)
    2237                            .dwattr $C$DW$143, DW_AT_decl_file("/Users/jadedh/ti/tirex-content/simplelink_msp432_sdk_1_20_
    2238                            .dwattr $C$DW$143, DW_AT_decl_line(0x2c3)
    2239                            .dwattr $C$DW$143, DW_AT_decl_column(0x12)
    2240                    
    2241                    $C$DW$144       .dwtag  DW_TAG_member
    2242                            .dwattr $C$DW$144, DW_AT_type(*$C$DW$T$30)
    2243                            .dwattr $C$DW$144, DW_AT_name("ACTLR")
    2244                            .dwattr $C$DW$144, DW_AT_TI_symbol_name("ACTLR")
TI ARM Assembler Unix v16.9.0 Mon Apr  3 01:00:07 2017

Tools Copyright (c) 1996-2015 Texas Instruments Incorporated
joystick_draw3.asm                                                   PAGE   42

    2245                            .dwattr $C$DW$144, DW_AT_data_member_location[DW_OP_plus_uconst 0x8]
    2246                            .dwattr $C$DW$144, DW_AT_accessibility(DW_ACCESS_public)
    2247                            .dwattr $C$DW$144, DW_AT_decl_file("/Users/jadedh/ti/tirex-content/simplelink_msp432_sdk_1_20_
    2248                            .dwattr $C$DW$144, DW_AT_decl_line(0x2c4)
    2249                            .dwattr $C$DW$144, DW_AT_decl_column(0x12)
    2250                    
    2251                            .dwattr $C$DW$T$47, DW_AT_decl_file("/Users/jadedh/ti/tirex-content/simplelink_msp432_sdk_1_20
    2252                            .dwattr $C$DW$T$47, DW_AT_decl_line(0x2c1)
    2253                            .dwattr $C$DW$T$47, DW_AT_decl_column(0x01)
    2254                            .dwendtag $C$DW$T$47
    2255                    
    2256                    $C$DW$T$196     .dwtag  DW_TAG_typedef
    2257                            .dwattr $C$DW$T$196, DW_AT_name("SCnSCB_Type")
    2258                            .dwattr $C$DW$T$196, DW_AT_type(*$C$DW$T$47)
    2259                            .dwattr $C$DW$T$196, DW_AT_language(DW_LANG_C)
    2260                            .dwattr $C$DW$T$196, DW_AT_decl_file("/Users/jadedh/ti/tirex-content/simplelink_msp432_sdk_1_2
    2261                            .dwattr $C$DW$T$196, DW_AT_decl_line(0x2c5)
    2262                            .dwattr $C$DW$T$196, DW_AT_decl_column(0x03)
    2263                    
    2264                    
    2265                    $C$DW$T$48      .dwtag  DW_TAG_structure_type
    2266                            .dwattr $C$DW$T$48, DW_AT_byte_size(0x10)
    2267                    $C$DW$145       .dwtag  DW_TAG_member
    2268                            .dwattr $C$DW$145, DW_AT_type(*$C$DW$T$30)
    2269                            .dwattr $C$DW$145, DW_AT_name("CTRL")
    2270                            .dwattr $C$DW$145, DW_AT_TI_symbol_name("CTRL")
    2271                            .dwattr $C$DW$145, DW_AT_data_member_location[DW_OP_plus_uconst 0x0]
    2272                            .dwattr $C$DW$145, DW_AT_accessibility(DW_ACCESS_public)
    2273                            .dwattr $C$DW$145, DW_AT_decl_file("/Users/jadedh/ti/tirex-content/simplelink_msp432_sdk_1_20_
    2274                            .dwattr $C$DW$145, DW_AT_decl_line(0x2ea)
    2275                            .dwattr $C$DW$145, DW_AT_decl_column(0x12)
    2276                    
    2277                    $C$DW$146       .dwtag  DW_TAG_member
    2278                            .dwattr $C$DW$146, DW_AT_type(*$C$DW$T$30)
    2279                            .dwattr $C$DW$146, DW_AT_name("LOAD")
    2280                            .dwattr $C$DW$146, DW_AT_TI_symbol_name("LOAD")
    2281                            .dwattr $C$DW$146, DW_AT_data_member_location[DW_OP_plus_uconst 0x4]
    2282                            .dwattr $C$DW$146, DW_AT_accessibility(DW_ACCESS_public)
    2283                            .dwattr $C$DW$146, DW_AT_decl_file("/Users/jadedh/ti/tirex-content/simplelink_msp432_sdk_1_20_
    2284                            .dwattr $C$DW$146, DW_AT_decl_line(0x2eb)
    2285                            .dwattr $C$DW$146, DW_AT_decl_column(0x12)
    2286                    
    2287                    $C$DW$147       .dwtag  DW_TAG_member
    2288                            .dwattr $C$DW$147, DW_AT_type(*$C$DW$T$30)
    2289                            .dwattr $C$DW$147, DW_AT_name("VAL")
    2290                            .dwattr $C$DW$147, DW_AT_TI_symbol_name("VAL")
    2291                            .dwattr $C$DW$147, DW_AT_data_member_location[DW_OP_plus_uconst 0x8]
    2292                            .dwattr $C$DW$147, DW_AT_accessibility(DW_ACCESS_public)
    2293                            .dwattr $C$DW$147, DW_AT_decl_file("/Users/jadedh/ti/tirex-content/simplelink_msp432_sdk_1_20_
    2294                            .dwattr $C$DW$147, DW_AT_decl_line(0x2ec)
    2295                            .dwattr $C$DW$147, DW_AT_decl_column(0x12)
    2296                    
    2297                    $C$DW$148       .dwtag  DW_TAG_member
    2298                            .dwattr $C$DW$148, DW_AT_type(*$C$DW$T$39)
    2299                            .dwattr $C$DW$148, DW_AT_name("CALIB")
TI ARM Assembler Unix v16.9.0 Mon Apr  3 01:00:07 2017

Tools Copyright (c) 1996-2015 Texas Instruments Incorporated
joystick_draw3.asm                                                   PAGE   43

    2300                            .dwattr $C$DW$148, DW_AT_TI_symbol_name("CALIB")
    2301                            .dwattr $C$DW$148, DW_AT_data_member_location[DW_OP_plus_uconst 0xc]
    2302                            .dwattr $C$DW$148, DW_AT_accessibility(DW_ACCESS_public)
    2303                            .dwattr $C$DW$148, DW_AT_decl_file("/Users/jadedh/ti/tirex-content/simplelink_msp432_sdk_1_20_
    2304                            .dwattr $C$DW$148, DW_AT_decl_line(0x2ed)
    2305                            .dwattr $C$DW$148, DW_AT_decl_column(0x12)
    2306                    
    2307                            .dwattr $C$DW$T$48, DW_AT_decl_file("/Users/jadedh/ti/tirex-content/simplelink_msp432_sdk_1_20
    2308                            .dwattr $C$DW$T$48, DW_AT_decl_line(0x2e9)
    2309                            .dwattr $C$DW$T$48, DW_AT_decl_column(0x01)
    2310                            .dwendtag $C$DW$T$48
    2311                    
    2312                    $C$DW$T$197     .dwtag  DW_TAG_typedef
    2313                            .dwattr $C$DW$T$197, DW_AT_name("SysTick_Type")
    2314                            .dwattr $C$DW$T$197, DW_AT_type(*$C$DW$T$48)
    2315                            .dwattr $C$DW$T$197, DW_AT_language(DW_LANG_C)
    2316                            .dwattr $C$DW$T$197, DW_AT_decl_file("/Users/jadedh/ti/tirex-content/simplelink_msp432_sdk_1_2
    2317                            .dwattr $C$DW$T$197, DW_AT_decl_line(0x2ee)
    2318                            .dwattr $C$DW$T$197, DW_AT_decl_column(0x03)
    2319                    
    2320                    
    2321                    $C$DW$T$56      .dwtag  DW_TAG_structure_type
    2322                            .dwattr $C$DW$T$56, DW_AT_byte_size(0x1000)
    2323                    $C$DW$149       .dwtag  DW_TAG_member
    2324                            .dwattr $C$DW$149, DW_AT_type(*$C$DW$T$50)
    2325                            .dwattr $C$DW$149, DW_AT_name("PORT")
    2326                            .dwattr $C$DW$149, DW_AT_TI_symbol_name("PORT")
    2327                            .dwattr $C$DW$149, DW_AT_data_member_location[DW_OP_plus_uconst 0x0]
    2328                            .dwattr $C$DW$149, DW_AT_accessibility(DW_ACCESS_public)
    2329                            .dwattr $C$DW$149, DW_AT_decl_file("/Users/jadedh/ti/tirex-content/simplelink_msp432_sdk_1_20_
    2330                            .dwattr $C$DW$149, DW_AT_decl_line(0x323)
    2331                            .dwattr $C$DW$149, DW_AT_decl_column(0x06)
    2332                    
    2333                    $C$DW$150       .dwtag  DW_TAG_member
    2334                            .dwattr $C$DW$150, DW_AT_type(*$C$DW$T$51)
    2335                            .dwattr $C$DW$150, DW_AT_name("RESERVED0")
    2336                            .dwattr $C$DW$150, DW_AT_TI_symbol_name("RESERVED0")
    2337                            .dwattr $C$DW$150, DW_AT_data_member_location[DW_OP_plus_uconst 0x80]
    2338                            .dwattr $C$DW$150, DW_AT_accessibility(DW_ACCESS_public)
    2339                            .dwattr $C$DW$150, DW_AT_decl_file("/Users/jadedh/ti/tirex-content/simplelink_msp432_sdk_1_20_
    2340                            .dwattr $C$DW$150, DW_AT_decl_line(0x324)
    2341                            .dwattr $C$DW$150, DW_AT_decl_column(0x12)
    2342                    
    2343                    $C$DW$151       .dwtag  DW_TAG_member
    2344                            .dwattr $C$DW$151, DW_AT_type(*$C$DW$T$30)
    2345                            .dwattr $C$DW$151, DW_AT_name("TER")
    2346                            .dwattr $C$DW$151, DW_AT_TI_symbol_name("TER")
    2347                            .dwattr $C$DW$151, DW_AT_data_member_location[DW_OP_plus_uconst 0xe00]
    2348                            .dwattr $C$DW$151, DW_AT_accessibility(DW_ACCESS_public)
    2349                            .dwattr $C$DW$151, DW_AT_decl_file("/Users/jadedh/ti/tirex-content/simplelink_msp432_sdk_1_20_
    2350                            .dwattr $C$DW$151, DW_AT_decl_line(0x325)
    2351                            .dwattr $C$DW$151, DW_AT_decl_column(0x12)
    2352                    
    2353                    $C$DW$152       .dwtag  DW_TAG_member
    2354                            .dwattr $C$DW$152, DW_AT_type(*$C$DW$T$52)
TI ARM Assembler Unix v16.9.0 Mon Apr  3 01:00:07 2017

Tools Copyright (c) 1996-2015 Texas Instruments Incorporated
joystick_draw3.asm                                                   PAGE   44

    2355                            .dwattr $C$DW$152, DW_AT_name("RESERVED1")
    2356                            .dwattr $C$DW$152, DW_AT_TI_symbol_name("RESERVED1")
    2357                            .dwattr $C$DW$152, DW_AT_data_member_location[DW_OP_plus_uconst 0xe04]
    2358                            .dwattr $C$DW$152, DW_AT_accessibility(DW_ACCESS_public)
    2359                            .dwattr $C$DW$152, DW_AT_decl_file("/Users/jadedh/ti/tirex-content/simplelink_msp432_sdk_1_20_
    2360                            .dwattr $C$DW$152, DW_AT_decl_line(0x326)
    2361                            .dwattr $C$DW$152, DW_AT_decl_column(0x12)
    2362                    
    2363                    $C$DW$153       .dwtag  DW_TAG_member
    2364                            .dwattr $C$DW$153, DW_AT_type(*$C$DW$T$30)
    2365                            .dwattr $C$DW$153, DW_AT_name("TPR")
    2366                            .dwattr $C$DW$153, DW_AT_TI_symbol_name("TPR")
    2367                            .dwattr $C$DW$153, DW_AT_data_member_location[DW_OP_plus_uconst 0xe40]
    2368                            .dwattr $C$DW$153, DW_AT_accessibility(DW_ACCESS_public)
    2369                            .dwattr $C$DW$153, DW_AT_decl_file("/Users/jadedh/ti/tirex-content/simplelink_msp432_sdk_1_20_
    2370                            .dwattr $C$DW$153, DW_AT_decl_line(0x327)
    2371                            .dwattr $C$DW$153, DW_AT_decl_column(0x12)
    2372                    
    2373                    $C$DW$154       .dwtag  DW_TAG_member
    2374                            .dwattr $C$DW$154, DW_AT_type(*$C$DW$T$52)
    2375                            .dwattr $C$DW$154, DW_AT_name("RESERVED2")
    2376                            .dwattr $C$DW$154, DW_AT_TI_symbol_name("RESERVED2")
    2377                            .dwattr $C$DW$154, DW_AT_data_member_location[DW_OP_plus_uconst 0xe44]
    2378                            .dwattr $C$DW$154, DW_AT_accessibility(DW_ACCESS_public)
    2379                            .dwattr $C$DW$154, DW_AT_decl_file("/Users/jadedh/ti/tirex-content/simplelink_msp432_sdk_1_20_
    2380                            .dwattr $C$DW$154, DW_AT_decl_line(0x328)
    2381                            .dwattr $C$DW$154, DW_AT_decl_column(0x12)
    2382                    
    2383                    $C$DW$155       .dwtag  DW_TAG_member
    2384                            .dwattr $C$DW$155, DW_AT_type(*$C$DW$T$30)
    2385                            .dwattr $C$DW$155, DW_AT_name("TCR")
    2386                            .dwattr $C$DW$155, DW_AT_TI_symbol_name("TCR")
    2387                            .dwattr $C$DW$155, DW_AT_data_member_location[DW_OP_plus_uconst 0xe80]
    2388                            .dwattr $C$DW$155, DW_AT_accessibility(DW_ACCESS_public)
    2389                            .dwattr $C$DW$155, DW_AT_decl_file("/Users/jadedh/ti/tirex-content/simplelink_msp432_sdk_1_20_
    2390                            .dwattr $C$DW$155, DW_AT_decl_line(0x329)
    2391                            .dwattr $C$DW$155, DW_AT_decl_column(0x12)
    2392                    
    2393                    $C$DW$156       .dwtag  DW_TAG_member
    2394                            .dwattr $C$DW$156, DW_AT_type(*$C$DW$T$53)
    2395                            .dwattr $C$DW$156, DW_AT_name("RESERVED3")
    2396                            .dwattr $C$DW$156, DW_AT_TI_symbol_name("RESERVED3")
    2397                            .dwattr $C$DW$156, DW_AT_data_member_location[DW_OP_plus_uconst 0xe84]
    2398                            .dwattr $C$DW$156, DW_AT_accessibility(DW_ACCESS_public)
    2399                            .dwattr $C$DW$156, DW_AT_decl_file("/Users/jadedh/ti/tirex-content/simplelink_msp432_sdk_1_20_
    2400                            .dwattr $C$DW$156, DW_AT_decl_line(0x32a)
    2401                            .dwattr $C$DW$156, DW_AT_decl_column(0x12)
    2402                    
    2403                    $C$DW$157       .dwtag  DW_TAG_member
    2404                            .dwattr $C$DW$157, DW_AT_type(*$C$DW$T$30)
    2405                            .dwattr $C$DW$157, DW_AT_name("IWR")
    2406                            .dwattr $C$DW$157, DW_AT_TI_symbol_name("IWR")
    2407                            .dwattr $C$DW$157, DW_AT_data_member_location[DW_OP_plus_uconst 0xef8]
    2408                            .dwattr $C$DW$157, DW_AT_accessibility(DW_ACCESS_public)
    2409                            .dwattr $C$DW$157, DW_AT_decl_file("/Users/jadedh/ti/tirex-content/simplelink_msp432_sdk_1_20_
TI ARM Assembler Unix v16.9.0 Mon Apr  3 01:00:07 2017

Tools Copyright (c) 1996-2015 Texas Instruments Incorporated
joystick_draw3.asm                                                   PAGE   45

    2410                            .dwattr $C$DW$157, DW_AT_decl_line(0x32b)
    2411                            .dwattr $C$DW$157, DW_AT_decl_column(0x12)
    2412                    
    2413                    $C$DW$158       .dwtag  DW_TAG_member
    2414                            .dwattr $C$DW$158, DW_AT_type(*$C$DW$T$39)
    2415                            .dwattr $C$DW$158, DW_AT_name("IRR")
    2416                            .dwattr $C$DW$158, DW_AT_TI_symbol_name("IRR")
    2417                            .dwattr $C$DW$158, DW_AT_data_member_location[DW_OP_plus_uconst 0xefc]
    2418                            .dwattr $C$DW$158, DW_AT_accessibility(DW_ACCESS_public)
    2419                            .dwattr $C$DW$158, DW_AT_decl_file("/Users/jadedh/ti/tirex-content/simplelink_msp432_sdk_1_20_
    2420                            .dwattr $C$DW$158, DW_AT_decl_line(0x32c)
    2421                            .dwattr $C$DW$158, DW_AT_decl_column(0x12)
    2422                    
    2423                    $C$DW$159       .dwtag  DW_TAG_member
    2424                            .dwattr $C$DW$159, DW_AT_type(*$C$DW$T$30)
    2425                            .dwattr $C$DW$159, DW_AT_name("IMCR")
    2426                            .dwattr $C$DW$159, DW_AT_TI_symbol_name("IMCR")
    2427                            .dwattr $C$DW$159, DW_AT_data_member_location[DW_OP_plus_uconst 0xf00]
    2428                            .dwattr $C$DW$159, DW_AT_accessibility(DW_ACCESS_public)
    2429                            .dwattr $C$DW$159, DW_AT_decl_file("/Users/jadedh/ti/tirex-content/simplelink_msp432_sdk_1_20_
    2430                            .dwattr $C$DW$159, DW_AT_decl_line(0x32d)
    2431                            .dwattr $C$DW$159, DW_AT_decl_column(0x12)
    2432                    
    2433                    $C$DW$160       .dwtag  DW_TAG_member
    2434                            .dwattr $C$DW$160, DW_AT_type(*$C$DW$T$54)
    2435                            .dwattr $C$DW$160, DW_AT_name("RESERVED4")
    2436                            .dwattr $C$DW$160, DW_AT_TI_symbol_name("RESERVED4")
    2437                            .dwattr $C$DW$160, DW_AT_data_member_location[DW_OP_plus_uconst 0xf04]
    2438                            .dwattr $C$DW$160, DW_AT_accessibility(DW_ACCESS_public)
    2439                            .dwattr $C$DW$160, DW_AT_decl_file("/Users/jadedh/ti/tirex-content/simplelink_msp432_sdk_1_20_
    2440                            .dwattr $C$DW$160, DW_AT_decl_line(0x32e)
    2441                            .dwattr $C$DW$160, DW_AT_decl_column(0x12)
    2442                    
    2443                    $C$DW$161       .dwtag  DW_TAG_member
    2444                            .dwattr $C$DW$161, DW_AT_type(*$C$DW$T$30)
    2445                            .dwattr $C$DW$161, DW_AT_name("LAR")
    2446                            .dwattr $C$DW$161, DW_AT_TI_symbol_name("LAR")
    2447                            .dwattr $C$DW$161, DW_AT_data_member_location[DW_OP_plus_uconst 0xfb0]
    2448                            .dwattr $C$DW$161, DW_AT_accessibility(DW_ACCESS_public)
    2449                            .dwattr $C$DW$161, DW_AT_decl_file("/Users/jadedh/ti/tirex-content/simplelink_msp432_sdk_1_20_
    2450                            .dwattr $C$DW$161, DW_AT_decl_line(0x32f)
    2451                            .dwattr $C$DW$161, DW_AT_decl_column(0x12)
    2452                    
    2453                    $C$DW$162       .dwtag  DW_TAG_member
    2454                            .dwattr $C$DW$162, DW_AT_type(*$C$DW$T$39)
    2455                            .dwattr $C$DW$162, DW_AT_name("LSR")
    2456                            .dwattr $C$DW$162, DW_AT_TI_symbol_name("LSR")
    2457                            .dwattr $C$DW$162, DW_AT_data_member_location[DW_OP_plus_uconst 0xfb4]
    2458                            .dwattr $C$DW$162, DW_AT_accessibility(DW_ACCESS_public)
    2459                            .dwattr $C$DW$162, DW_AT_decl_file("/Users/jadedh/ti/tirex-content/simplelink_msp432_sdk_1_20_
    2460                            .dwattr $C$DW$162, DW_AT_decl_line(0x330)
    2461                            .dwattr $C$DW$162, DW_AT_decl_column(0x12)
    2462                    
    2463                    $C$DW$163       .dwtag  DW_TAG_member
    2464                            .dwattr $C$DW$163, DW_AT_type(*$C$DW$T$55)
TI ARM Assembler Unix v16.9.0 Mon Apr  3 01:00:07 2017

Tools Copyright (c) 1996-2015 Texas Instruments Incorporated
joystick_draw3.asm                                                   PAGE   46

    2465                            .dwattr $C$DW$163, DW_AT_name("RESERVED5")
    2466                            .dwattr $C$DW$163, DW_AT_TI_symbol_name("RESERVED5")
    2467                            .dwattr $C$DW$163, DW_AT_data_member_location[DW_OP_plus_uconst 0xfb8]
    2468                            .dwattr $C$DW$163, DW_AT_accessibility(DW_ACCESS_public)
    2469                            .dwattr $C$DW$163, DW_AT_decl_file("/Users/jadedh/ti/tirex-content/simplelink_msp432_sdk_1_20_
    2470                            .dwattr $C$DW$163, DW_AT_decl_line(0x331)
    2471                            .dwattr $C$DW$163, DW_AT_decl_column(0x12)
    2472                    
    2473                    $C$DW$164       .dwtag  DW_TAG_member
    2474                            .dwattr $C$DW$164, DW_AT_type(*$C$DW$T$39)
    2475                            .dwattr $C$DW$164, DW_AT_name("PID4")
    2476                            .dwattr $C$DW$164, DW_AT_TI_symbol_name("PID4")
    2477                            .dwattr $C$DW$164, DW_AT_data_member_location[DW_OP_plus_uconst 0xfd0]
    2478                            .dwattr $C$DW$164, DW_AT_accessibility(DW_ACCESS_public)
    2479                            .dwattr $C$DW$164, DW_AT_decl_file("/Users/jadedh/ti/tirex-content/simplelink_msp432_sdk_1_20_
    2480                            .dwattr $C$DW$164, DW_AT_decl_line(0x332)
    2481                            .dwattr $C$DW$164, DW_AT_decl_column(0x12)
    2482                    
    2483                    $C$DW$165       .dwtag  DW_TAG_member
    2484                            .dwattr $C$DW$165, DW_AT_type(*$C$DW$T$39)
    2485                            .dwattr $C$DW$165, DW_AT_name("PID5")
    2486                            .dwattr $C$DW$165, DW_AT_TI_symbol_name("PID5")
    2487                            .dwattr $C$DW$165, DW_AT_data_member_location[DW_OP_plus_uconst 0xfd4]
    2488                            .dwattr $C$DW$165, DW_AT_accessibility(DW_ACCESS_public)
    2489                            .dwattr $C$DW$165, DW_AT_decl_file("/Users/jadedh/ti/tirex-content/simplelink_msp432_sdk_1_20_
    2490                            .dwattr $C$DW$165, DW_AT_decl_line(0x333)
    2491                            .dwattr $C$DW$165, DW_AT_decl_column(0x12)
    2492                    
    2493                    $C$DW$166       .dwtag  DW_TAG_member
    2494                            .dwattr $C$DW$166, DW_AT_type(*$C$DW$T$39)
    2495                            .dwattr $C$DW$166, DW_AT_name("PID6")
    2496                            .dwattr $C$DW$166, DW_AT_TI_symbol_name("PID6")
    2497                            .dwattr $C$DW$166, DW_AT_data_member_location[DW_OP_plus_uconst 0xfd8]
    2498                            .dwattr $C$DW$166, DW_AT_accessibility(DW_ACCESS_public)
    2499                            .dwattr $C$DW$166, DW_AT_decl_file("/Users/jadedh/ti/tirex-content/simplelink_msp432_sdk_1_20_
    2500                            .dwattr $C$DW$166, DW_AT_decl_line(0x334)
    2501                            .dwattr $C$DW$166, DW_AT_decl_column(0x12)
    2502                    
    2503                    $C$DW$167       .dwtag  DW_TAG_member
    2504                            .dwattr $C$DW$167, DW_AT_type(*$C$DW$T$39)
    2505                            .dwattr $C$DW$167, DW_AT_name("PID7")
    2506                            .dwattr $C$DW$167, DW_AT_TI_symbol_name("PID7")
    2507                            .dwattr $C$DW$167, DW_AT_data_member_location[DW_OP_plus_uconst 0xfdc]
    2508                            .dwattr $C$DW$167, DW_AT_accessibility(DW_ACCESS_public)
    2509                            .dwattr $C$DW$167, DW_AT_decl_file("/Users/jadedh/ti/tirex-content/simplelink_msp432_sdk_1_20_
    2510                            .dwattr $C$DW$167, DW_AT_decl_line(0x335)
    2511                            .dwattr $C$DW$167, DW_AT_decl_column(0x12)
    2512                    
    2513                    $C$DW$168       .dwtag  DW_TAG_member
    2514                            .dwattr $C$DW$168, DW_AT_type(*$C$DW$T$39)
    2515                            .dwattr $C$DW$168, DW_AT_name("PID0")
    2516                            .dwattr $C$DW$168, DW_AT_TI_symbol_name("PID0")
    2517                            .dwattr $C$DW$168, DW_AT_data_member_location[DW_OP_plus_uconst 0xfe0]
    2518                            .dwattr $C$DW$168, DW_AT_accessibility(DW_ACCESS_public)
    2519                            .dwattr $C$DW$168, DW_AT_decl_file("/Users/jadedh/ti/tirex-content/simplelink_msp432_sdk_1_20_
TI ARM Assembler Unix v16.9.0 Mon Apr  3 01:00:07 2017

Tools Copyright (c) 1996-2015 Texas Instruments Incorporated
joystick_draw3.asm                                                   PAGE   47

    2520                            .dwattr $C$DW$168, DW_AT_decl_line(0x336)
    2521                            .dwattr $C$DW$168, DW_AT_decl_column(0x12)
    2522                    
    2523                    $C$DW$169       .dwtag  DW_TAG_member
    2524                            .dwattr $C$DW$169, DW_AT_type(*$C$DW$T$39)
    2525                            .dwattr $C$DW$169, DW_AT_name("PID1")
    2526                            .dwattr $C$DW$169, DW_AT_TI_symbol_name("PID1")
    2527                            .dwattr $C$DW$169, DW_AT_data_member_location[DW_OP_plus_uconst 0xfe4]
    2528                            .dwattr $C$DW$169, DW_AT_accessibility(DW_ACCESS_public)
    2529                            .dwattr $C$DW$169, DW_AT_decl_file("/Users/jadedh/ti/tirex-content/simplelink_msp432_sdk_1_20_
    2530                            .dwattr $C$DW$169, DW_AT_decl_line(0x337)
    2531                            .dwattr $C$DW$169, DW_AT_decl_column(0x12)
    2532                    
    2533                    $C$DW$170       .dwtag  DW_TAG_member
    2534                            .dwattr $C$DW$170, DW_AT_type(*$C$DW$T$39)
    2535                            .dwattr $C$DW$170, DW_AT_name("PID2")
    2536                            .dwattr $C$DW$170, DW_AT_TI_symbol_name("PID2")
    2537                            .dwattr $C$DW$170, DW_AT_data_member_location[DW_OP_plus_uconst 0xfe8]
    2538                            .dwattr $C$DW$170, DW_AT_accessibility(DW_ACCESS_public)
    2539                            .dwattr $C$DW$170, DW_AT_decl_file("/Users/jadedh/ti/tirex-content/simplelink_msp432_sdk_1_20_
    2540                            .dwattr $C$DW$170, DW_AT_decl_line(0x338)
    2541                            .dwattr $C$DW$170, DW_AT_decl_column(0x12)
    2542                    
    2543                    $C$DW$171       .dwtag  DW_TAG_member
    2544                            .dwattr $C$DW$171, DW_AT_type(*$C$DW$T$39)
    2545                            .dwattr $C$DW$171, DW_AT_name("PID3")
    2546                            .dwattr $C$DW$171, DW_AT_TI_symbol_name("PID3")
    2547                            .dwattr $C$DW$171, DW_AT_data_member_location[DW_OP_plus_uconst 0xfec]
    2548                            .dwattr $C$DW$171, DW_AT_accessibility(DW_ACCESS_public)
    2549                            .dwattr $C$DW$171, DW_AT_decl_file("/Users/jadedh/ti/tirex-content/simplelink_msp432_sdk_1_20_
    2550                            .dwattr $C$DW$171, DW_AT_decl_line(0x339)
    2551                            .dwattr $C$DW$171, DW_AT_decl_column(0x12)
    2552                    
    2553                    $C$DW$172       .dwtag  DW_TAG_member
    2554                            .dwattr $C$DW$172, DW_AT_type(*$C$DW$T$39)
    2555                            .dwattr $C$DW$172, DW_AT_name("CID0")
    2556                            .dwattr $C$DW$172, DW_AT_TI_symbol_name("CID0")
    2557                            .dwattr $C$DW$172, DW_AT_data_member_location[DW_OP_plus_uconst 0xff0]
    2558                            .dwattr $C$DW$172, DW_AT_accessibility(DW_ACCESS_public)
    2559                            .dwattr $C$DW$172, DW_AT_decl_file("/Users/jadedh/ti/tirex-content/simplelink_msp432_sdk_1_20_
    2560                            .dwattr $C$DW$172, DW_AT_decl_line(0x33a)
    2561                            .dwattr $C$DW$172, DW_AT_decl_column(0x12)
    2562                    
    2563                    $C$DW$173       .dwtag  DW_TAG_member
    2564                            .dwattr $C$DW$173, DW_AT_type(*$C$DW$T$39)
    2565                            .dwattr $C$DW$173, DW_AT_name("CID1")
    2566                            .dwattr $C$DW$173, DW_AT_TI_symbol_name("CID1")
    2567                            .dwattr $C$DW$173, DW_AT_data_member_location[DW_OP_plus_uconst 0xff4]
    2568                            .dwattr $C$DW$173, DW_AT_accessibility(DW_ACCESS_public)
    2569                            .dwattr $C$DW$173, DW_AT_decl_file("/Users/jadedh/ti/tirex-content/simplelink_msp432_sdk_1_20_
    2570                            .dwattr $C$DW$173, DW_AT_decl_line(0x33b)
    2571                            .dwattr $C$DW$173, DW_AT_decl_column(0x12)
    2572                    
    2573                    $C$DW$174       .dwtag  DW_TAG_member
    2574                            .dwattr $C$DW$174, DW_AT_type(*$C$DW$T$39)
TI ARM Assembler Unix v16.9.0 Mon Apr  3 01:00:07 2017

Tools Copyright (c) 1996-2015 Texas Instruments Incorporated
joystick_draw3.asm                                                   PAGE   48

    2575                            .dwattr $C$DW$174, DW_AT_name("CID2")
    2576                            .dwattr $C$DW$174, DW_AT_TI_symbol_name("CID2")
    2577                            .dwattr $C$DW$174, DW_AT_data_member_location[DW_OP_plus_uconst 0xff8]
    2578                            .dwattr $C$DW$174, DW_AT_accessibility(DW_ACCESS_public)
    2579                            .dwattr $C$DW$174, DW_AT_decl_file("/Users/jadedh/ti/tirex-content/simplelink_msp432_sdk_1_20_
    2580                            .dwattr $C$DW$174, DW_AT_decl_line(0x33c)
    2581                            .dwattr $C$DW$174, DW_AT_decl_column(0x12)
    2582                    
    2583                    $C$DW$175       .dwtag  DW_TAG_member
    2584                            .dwattr $C$DW$175, DW_AT_type(*$C$DW$T$39)
    2585                            .dwattr $C$DW$175, DW_AT_name("CID3")
    2586                            .dwattr $C$DW$175, DW_AT_TI_symbol_name("CID3")
    2587                            .dwattr $C$DW$175, DW_AT_data_member_location[DW_OP_plus_uconst 0xffc]
    2588                            .dwattr $C$DW$175, DW_AT_accessibility(DW_ACCESS_public)
    2589                            .dwattr $C$DW$175, DW_AT_decl_file("/Users/jadedh/ti/tirex-content/simplelink_msp432_sdk_1_20_
    2590                            .dwattr $C$DW$175, DW_AT_decl_line(0x33d)
    2591                            .dwattr $C$DW$175, DW_AT_decl_column(0x12)
    2592                    
    2593                            .dwattr $C$DW$T$56, DW_AT_decl_file("/Users/jadedh/ti/tirex-content/simplelink_msp432_sdk_1_20
    2594                            .dwattr $C$DW$T$56, DW_AT_decl_line(0x31d)
    2595                            .dwattr $C$DW$T$56, DW_AT_decl_column(0x01)
    2596                            .dwendtag $C$DW$T$56
    2597                    
    2598                    $C$DW$T$198     .dwtag  DW_TAG_typedef
    2599                            .dwattr $C$DW$T$198, DW_AT_name("ITM_Type")
    2600                            .dwattr $C$DW$T$198, DW_AT_type(*$C$DW$T$56)
    2601                            .dwattr $C$DW$T$198, DW_AT_language(DW_LANG_C)
    2602                            .dwattr $C$DW$T$198, DW_AT_decl_file("/Users/jadedh/ti/tirex-content/simplelink_msp432_sdk_1_2
    2603                            .dwattr $C$DW$T$198, DW_AT_decl_line(0x33e)
    2604                            .dwattr $C$DW$T$198, DW_AT_decl_column(0x03)
    2605                    
    2606                    
    2607                    $C$DW$T$57      .dwtag  DW_TAG_structure_type
    2608                            .dwattr $C$DW$T$57, DW_AT_byte_size(0x5c)
    2609                    $C$DW$176       .dwtag  DW_TAG_member
    2610                            .dwattr $C$DW$176, DW_AT_type(*$C$DW$T$30)
    2611                            .dwattr $C$DW$176, DW_AT_name("CTRL")
    2612                            .dwattr $C$DW$176, DW_AT_TI_symbol_name("CTRL")
    2613                            .dwattr $C$DW$176, DW_AT_data_member_location[DW_OP_plus_uconst 0x0]
    2614                            .dwattr $C$DW$176, DW_AT_accessibility(DW_ACCESS_public)
    2615                            .dwattr $C$DW$176, DW_AT_decl_file("/Users/jadedh/ti/tirex-content/simplelink_msp432_sdk_1_20_
    2616                            .dwattr $C$DW$176, DW_AT_decl_line(0x385)
    2617                            .dwattr $C$DW$176, DW_AT_decl_column(0x12)
    2618                    
    2619                    $C$DW$177       .dwtag  DW_TAG_member
    2620                            .dwattr $C$DW$177, DW_AT_type(*$C$DW$T$30)
    2621                            .dwattr $C$DW$177, DW_AT_name("CYCCNT")
    2622                            .dwattr $C$DW$177, DW_AT_TI_symbol_name("CYCCNT")
    2623                            .dwattr $C$DW$177, DW_AT_data_member_location[DW_OP_plus_uconst 0x4]
    2624                            .dwattr $C$DW$177, DW_AT_accessibility(DW_ACCESS_public)
    2625                            .dwattr $C$DW$177, DW_AT_decl_file("/Users/jadedh/ti/tirex-content/simplelink_msp432_sdk_1_20_
    2626                            .dwattr $C$DW$177, DW_AT_decl_line(0x386)
    2627                            .dwattr $C$DW$177, DW_AT_decl_column(0x12)
    2628                    
    2629                    $C$DW$178       .dwtag  DW_TAG_member
TI ARM Assembler Unix v16.9.0 Mon Apr  3 01:00:07 2017

Tools Copyright (c) 1996-2015 Texas Instruments Incorporated
joystick_draw3.asm                                                   PAGE   49

    2630                            .dwattr $C$DW$178, DW_AT_type(*$C$DW$T$30)
    2631                            .dwattr $C$DW$178, DW_AT_name("CPICNT")
    2632                            .dwattr $C$DW$178, DW_AT_TI_symbol_name("CPICNT")
    2633                            .dwattr $C$DW$178, DW_AT_data_member_location[DW_OP_plus_uconst 0x8]
    2634                            .dwattr $C$DW$178, DW_AT_accessibility(DW_ACCESS_public)
    2635                            .dwattr $C$DW$178, DW_AT_decl_file("/Users/jadedh/ti/tirex-content/simplelink_msp432_sdk_1_20_
    2636                            .dwattr $C$DW$178, DW_AT_decl_line(0x387)
    2637                            .dwattr $C$DW$178, DW_AT_decl_column(0x12)
    2638                    
    2639                    $C$DW$179       .dwtag  DW_TAG_member
    2640                            .dwattr $C$DW$179, DW_AT_type(*$C$DW$T$30)
    2641                            .dwattr $C$DW$179, DW_AT_name("EXCCNT")
    2642                            .dwattr $C$DW$179, DW_AT_TI_symbol_name("EXCCNT")
    2643                            .dwattr $C$DW$179, DW_AT_data_member_location[DW_OP_plus_uconst 0xc]
    2644                            .dwattr $C$DW$179, DW_AT_accessibility(DW_ACCESS_public)
    2645                            .dwattr $C$DW$179, DW_AT_decl_file("/Users/jadedh/ti/tirex-content/simplelink_msp432_sdk_1_20_
    2646                            .dwattr $C$DW$179, DW_AT_decl_line(0x388)
    2647                            .dwattr $C$DW$179, DW_AT_decl_column(0x12)
    2648                    
    2649                    $C$DW$180       .dwtag  DW_TAG_member
    2650                            .dwattr $C$DW$180, DW_AT_type(*$C$DW$T$30)
    2651                            .dwattr $C$DW$180, DW_AT_name("SLEEPCNT")
    2652                            .dwattr $C$DW$180, DW_AT_TI_symbol_name("SLEEPCNT")
    2653                            .dwattr $C$DW$180, DW_AT_data_member_location[DW_OP_plus_uconst 0x10]
    2654                            .dwattr $C$DW$180, DW_AT_accessibility(DW_ACCESS_public)
    2655                            .dwattr $C$DW$180, DW_AT_decl_file("/Users/jadedh/ti/tirex-content/simplelink_msp432_sdk_1_20_
    2656                            .dwattr $C$DW$180, DW_AT_decl_line(0x389)
    2657                            .dwattr $C$DW$180, DW_AT_decl_column(0x12)
    2658                    
    2659                    $C$DW$181       .dwtag  DW_TAG_member
    2660                            .dwattr $C$DW$181, DW_AT_type(*$C$DW$T$30)
    2661                            .dwattr $C$DW$181, DW_AT_name("LSUCNT")
    2662                            .dwattr $C$DW$181, DW_AT_TI_symbol_name("LSUCNT")
    2663                            .dwattr $C$DW$181, DW_AT_data_member_location[DW_OP_plus_uconst 0x14]
    2664                            .dwattr $C$DW$181, DW_AT_accessibility(DW_ACCESS_public)
    2665                            .dwattr $C$DW$181, DW_AT_decl_file("/Users/jadedh/ti/tirex-content/simplelink_msp432_sdk_1_20_
    2666                            .dwattr $C$DW$181, DW_AT_decl_line(0x38a)
    2667                            .dwattr $C$DW$181, DW_AT_decl_column(0x12)
    2668                    
    2669                    $C$DW$182       .dwtag  DW_TAG_member
    2670                            .dwattr $C$DW$182, DW_AT_type(*$C$DW$T$30)
    2671                            .dwattr $C$DW$182, DW_AT_name("FOLDCNT")
    2672                            .dwattr $C$DW$182, DW_AT_TI_symbol_name("FOLDCNT")
    2673                            .dwattr $C$DW$182, DW_AT_data_member_location[DW_OP_plus_uconst 0x18]
    2674                            .dwattr $C$DW$182, DW_AT_accessibility(DW_ACCESS_public)
    2675                            .dwattr $C$DW$182, DW_AT_decl_file("/Users/jadedh/ti/tirex-content/simplelink_msp432_sdk_1_20_
    2676                            .dwattr $C$DW$182, DW_AT_decl_line(0x38b)
    2677                            .dwattr $C$DW$182, DW_AT_decl_column(0x12)
    2678                    
    2679                    $C$DW$183       .dwtag  DW_TAG_member
    2680                            .dwattr $C$DW$183, DW_AT_type(*$C$DW$T$39)
    2681                            .dwattr $C$DW$183, DW_AT_name("PCSR")
    2682                            .dwattr $C$DW$183, DW_AT_TI_symbol_name("PCSR")
    2683                            .dwattr $C$DW$183, DW_AT_data_member_location[DW_OP_plus_uconst 0x1c]
    2684                            .dwattr $C$DW$183, DW_AT_accessibility(DW_ACCESS_public)
TI ARM Assembler Unix v16.9.0 Mon Apr  3 01:00:07 2017

Tools Copyright (c) 1996-2015 Texas Instruments Incorporated
joystick_draw3.asm                                                   PAGE   50

    2685                            .dwattr $C$DW$183, DW_AT_decl_file("/Users/jadedh/ti/tirex-content/simplelink_msp432_sdk_1_20_
    2686                            .dwattr $C$DW$183, DW_AT_decl_line(0x38c)
    2687                            .dwattr $C$DW$183, DW_AT_decl_column(0x12)
    2688                    
    2689                    $C$DW$184       .dwtag  DW_TAG_member
    2690                            .dwattr $C$DW$184, DW_AT_type(*$C$DW$T$30)
    2691                            .dwattr $C$DW$184, DW_AT_name("COMP0")
    2692                            .dwattr $C$DW$184, DW_AT_TI_symbol_name("COMP0")
    2693                            .dwattr $C$DW$184, DW_AT_data_member_location[DW_OP_plus_uconst 0x20]
    2694                            .dwattr $C$DW$184, DW_AT_accessibility(DW_ACCESS_public)
    2695                            .dwattr $C$DW$184, DW_AT_decl_file("/Users/jadedh/ti/tirex-content/simplelink_msp432_sdk_1_20_
    2696                            .dwattr $C$DW$184, DW_AT_decl_line(0x38d)
    2697                            .dwattr $C$DW$184, DW_AT_decl_column(0x12)
    2698                    
    2699                    $C$DW$185       .dwtag  DW_TAG_member
    2700                            .dwattr $C$DW$185, DW_AT_type(*$C$DW$T$30)
    2701                            .dwattr $C$DW$185, DW_AT_name("MASK0")
    2702                            .dwattr $C$DW$185, DW_AT_TI_symbol_name("MASK0")
    2703                            .dwattr $C$DW$185, DW_AT_data_member_location[DW_OP_plus_uconst 0x24]
    2704                            .dwattr $C$DW$185, DW_AT_accessibility(DW_ACCESS_public)
    2705                            .dwattr $C$DW$185, DW_AT_decl_file("/Users/jadedh/ti/tirex-content/simplelink_msp432_sdk_1_20_
    2706                            .dwattr $C$DW$185, DW_AT_decl_line(0x38e)
    2707                            .dwattr $C$DW$185, DW_AT_decl_column(0x12)
    2708                    
    2709                    $C$DW$186       .dwtag  DW_TAG_member
    2710                            .dwattr $C$DW$186, DW_AT_type(*$C$DW$T$30)
    2711                            .dwattr $C$DW$186, DW_AT_name("FUNCTION0")
    2712                            .dwattr $C$DW$186, DW_AT_TI_symbol_name("FUNCTION0")
    2713                            .dwattr $C$DW$186, DW_AT_data_member_location[DW_OP_plus_uconst 0x28]
    2714                            .dwattr $C$DW$186, DW_AT_accessibility(DW_ACCESS_public)
    2715                            .dwattr $C$DW$186, DW_AT_decl_file("/Users/jadedh/ti/tirex-content/simplelink_msp432_sdk_1_20_
    2716                            .dwattr $C$DW$186, DW_AT_decl_line(0x38f)
    2717                            .dwattr $C$DW$186, DW_AT_decl_column(0x12)
    2718                    
    2719                    $C$DW$187       .dwtag  DW_TAG_member
    2720                            .dwattr $C$DW$187, DW_AT_type(*$C$DW$T$46)
    2721                            .dwattr $C$DW$187, DW_AT_name("RESERVED0")
    2722                            .dwattr $C$DW$187, DW_AT_TI_symbol_name("RESERVED0")
    2723                            .dwattr $C$DW$187, DW_AT_data_member_location[DW_OP_plus_uconst 0x2c]
    2724                            .dwattr $C$DW$187, DW_AT_accessibility(DW_ACCESS_public)
    2725                            .dwattr $C$DW$187, DW_AT_decl_file("/Users/jadedh/ti/tirex-content/simplelink_msp432_sdk_1_20_
    2726                            .dwattr $C$DW$187, DW_AT_decl_line(0x390)
    2727                            .dwattr $C$DW$187, DW_AT_decl_column(0x12)
    2728                    
    2729                    $C$DW$188       .dwtag  DW_TAG_member
    2730                            .dwattr $C$DW$188, DW_AT_type(*$C$DW$T$30)
    2731                            .dwattr $C$DW$188, DW_AT_name("COMP1")
    2732                            .dwattr $C$DW$188, DW_AT_TI_symbol_name("COMP1")
    2733                            .dwattr $C$DW$188, DW_AT_data_member_location[DW_OP_plus_uconst 0x30]
    2734                            .dwattr $C$DW$188, DW_AT_accessibility(DW_ACCESS_public)
    2735                            .dwattr $C$DW$188, DW_AT_decl_file("/Users/jadedh/ti/tirex-content/simplelink_msp432_sdk_1_20_
    2736                            .dwattr $C$DW$188, DW_AT_decl_line(0x391)
    2737                            .dwattr $C$DW$188, DW_AT_decl_column(0x12)
    2738                    
    2739                    $C$DW$189       .dwtag  DW_TAG_member
TI ARM Assembler Unix v16.9.0 Mon Apr  3 01:00:07 2017

Tools Copyright (c) 1996-2015 Texas Instruments Incorporated
joystick_draw3.asm                                                   PAGE   51

    2740                            .dwattr $C$DW$189, DW_AT_type(*$C$DW$T$30)
    2741                            .dwattr $C$DW$189, DW_AT_name("MASK1")
    2742                            .dwattr $C$DW$189, DW_AT_TI_symbol_name("MASK1")
    2743                            .dwattr $C$DW$189, DW_AT_data_member_location[DW_OP_plus_uconst 0x34]
    2744                            .dwattr $C$DW$189, DW_AT_accessibility(DW_ACCESS_public)
    2745                            .dwattr $C$DW$189, DW_AT_decl_file("/Users/jadedh/ti/tirex-content/simplelink_msp432_sdk_1_20_
    2746                            .dwattr $C$DW$189, DW_AT_decl_line(0x392)
    2747                            .dwattr $C$DW$189, DW_AT_decl_column(0x12)
    2748                    
    2749                    $C$DW$190       .dwtag  DW_TAG_member
    2750                            .dwattr $C$DW$190, DW_AT_type(*$C$DW$T$30)
    2751                            .dwattr $C$DW$190, DW_AT_name("FUNCTION1")
    2752                            .dwattr $C$DW$190, DW_AT_TI_symbol_name("FUNCTION1")
    2753                            .dwattr $C$DW$190, DW_AT_data_member_location[DW_OP_plus_uconst 0x38]
    2754                            .dwattr $C$DW$190, DW_AT_accessibility(DW_ACCESS_public)
    2755                            .dwattr $C$DW$190, DW_AT_decl_file("/Users/jadedh/ti/tirex-content/simplelink_msp432_sdk_1_20_
    2756                            .dwattr $C$DW$190, DW_AT_decl_line(0x393)
    2757                            .dwattr $C$DW$190, DW_AT_decl_column(0x12)
    2758                    
    2759                    $C$DW$191       .dwtag  DW_TAG_member
    2760                            .dwattr $C$DW$191, DW_AT_type(*$C$DW$T$46)
    2761                            .dwattr $C$DW$191, DW_AT_name("RESERVED1")
    2762                            .dwattr $C$DW$191, DW_AT_TI_symbol_name("RESERVED1")
    2763                            .dwattr $C$DW$191, DW_AT_data_member_location[DW_OP_plus_uconst 0x3c]
    2764                            .dwattr $C$DW$191, DW_AT_accessibility(DW_ACCESS_public)
    2765                            .dwattr $C$DW$191, DW_AT_decl_file("/Users/jadedh/ti/tirex-content/simplelink_msp432_sdk_1_20_
    2766                            .dwattr $C$DW$191, DW_AT_decl_line(0x394)
    2767                            .dwattr $C$DW$191, DW_AT_decl_column(0x12)
    2768                    
    2769                    $C$DW$192       .dwtag  DW_TAG_member
    2770                            .dwattr $C$DW$192, DW_AT_type(*$C$DW$T$30)
    2771                            .dwattr $C$DW$192, DW_AT_name("COMP2")
    2772                            .dwattr $C$DW$192, DW_AT_TI_symbol_name("COMP2")
    2773                            .dwattr $C$DW$192, DW_AT_data_member_location[DW_OP_plus_uconst 0x40]
    2774                            .dwattr $C$DW$192, DW_AT_accessibility(DW_ACCESS_public)
    2775                            .dwattr $C$DW$192, DW_AT_decl_file("/Users/jadedh/ti/tirex-content/simplelink_msp432_sdk_1_20_
    2776                            .dwattr $C$DW$192, DW_AT_decl_line(0x395)
    2777                            .dwattr $C$DW$192, DW_AT_decl_column(0x12)
    2778                    
    2779                    $C$DW$193       .dwtag  DW_TAG_member
    2780                            .dwattr $C$DW$193, DW_AT_type(*$C$DW$T$30)
    2781                            .dwattr $C$DW$193, DW_AT_name("MASK2")
    2782                            .dwattr $C$DW$193, DW_AT_TI_symbol_name("MASK2")
    2783                            .dwattr $C$DW$193, DW_AT_data_member_location[DW_OP_plus_uconst 0x44]
    2784                            .dwattr $C$DW$193, DW_AT_accessibility(DW_ACCESS_public)
    2785                            .dwattr $C$DW$193, DW_AT_decl_file("/Users/jadedh/ti/tirex-content/simplelink_msp432_sdk_1_20_
    2786                            .dwattr $C$DW$193, DW_AT_decl_line(0x396)
    2787                            .dwattr $C$DW$193, DW_AT_decl_column(0x12)
    2788                    
    2789                    $C$DW$194       .dwtag  DW_TAG_member
    2790                            .dwattr $C$DW$194, DW_AT_type(*$C$DW$T$30)
    2791                            .dwattr $C$DW$194, DW_AT_name("FUNCTION2")
    2792                            .dwattr $C$DW$194, DW_AT_TI_symbol_name("FUNCTION2")
    2793                            .dwattr $C$DW$194, DW_AT_data_member_location[DW_OP_plus_uconst 0x48]
    2794                            .dwattr $C$DW$194, DW_AT_accessibility(DW_ACCESS_public)
TI ARM Assembler Unix v16.9.0 Mon Apr  3 01:00:07 2017

Tools Copyright (c) 1996-2015 Texas Instruments Incorporated
joystick_draw3.asm                                                   PAGE   52

    2795                            .dwattr $C$DW$194, DW_AT_decl_file("/Users/jadedh/ti/tirex-content/simplelink_msp432_sdk_1_20_
    2796                            .dwattr $C$DW$194, DW_AT_decl_line(0x397)
    2797                            .dwattr $C$DW$194, DW_AT_decl_column(0x12)
    2798                    
    2799                    $C$DW$195       .dwtag  DW_TAG_member
    2800                            .dwattr $C$DW$195, DW_AT_type(*$C$DW$T$46)
    2801                            .dwattr $C$DW$195, DW_AT_name("RESERVED2")
    2802                            .dwattr $C$DW$195, DW_AT_TI_symbol_name("RESERVED2")
    2803                            .dwattr $C$DW$195, DW_AT_data_member_location[DW_OP_plus_uconst 0x4c]
    2804                            .dwattr $C$DW$195, DW_AT_accessibility(DW_ACCESS_public)
    2805                            .dwattr $C$DW$195, DW_AT_decl_file("/Users/jadedh/ti/tirex-content/simplelink_msp432_sdk_1_20_
    2806                            .dwattr $C$DW$195, DW_AT_decl_line(0x398)
    2807                            .dwattr $C$DW$195, DW_AT_decl_column(0x12)
    2808                    
    2809                    $C$DW$196       .dwtag  DW_TAG_member
    2810                            .dwattr $C$DW$196, DW_AT_type(*$C$DW$T$30)
    2811                            .dwattr $C$DW$196, DW_AT_name("COMP3")
    2812                            .dwattr $C$DW$196, DW_AT_TI_symbol_name("COMP3")
    2813                            .dwattr $C$DW$196, DW_AT_data_member_location[DW_OP_plus_uconst 0x50]
    2814                            .dwattr $C$DW$196, DW_AT_accessibility(DW_ACCESS_public)
    2815                            .dwattr $C$DW$196, DW_AT_decl_file("/Users/jadedh/ti/tirex-content/simplelink_msp432_sdk_1_20_
    2816                            .dwattr $C$DW$196, DW_AT_decl_line(0x399)
    2817                            .dwattr $C$DW$196, DW_AT_decl_column(0x12)
    2818                    
    2819                    $C$DW$197       .dwtag  DW_TAG_member
    2820                            .dwattr $C$DW$197, DW_AT_type(*$C$DW$T$30)
    2821                            .dwattr $C$DW$197, DW_AT_name("MASK3")
    2822                            .dwattr $C$DW$197, DW_AT_TI_symbol_name("MASK3")
    2823                            .dwattr $C$DW$197, DW_AT_data_member_location[DW_OP_plus_uconst 0x54]
    2824                            .dwattr $C$DW$197, DW_AT_accessibility(DW_ACCESS_public)
    2825                            .dwattr $C$DW$197, DW_AT_decl_file("/Users/jadedh/ti/tirex-content/simplelink_msp432_sdk_1_20_
    2826                            .dwattr $C$DW$197, DW_AT_decl_line(0x39a)
    2827                            .dwattr $C$DW$197, DW_AT_decl_column(0x12)
    2828                    
    2829                    $C$DW$198       .dwtag  DW_TAG_member
    2830                            .dwattr $C$DW$198, DW_AT_type(*$C$DW$T$30)
    2831                            .dwattr $C$DW$198, DW_AT_name("FUNCTION3")
    2832                            .dwattr $C$DW$198, DW_AT_TI_symbol_name("FUNCTION3")
    2833                            .dwattr $C$DW$198, DW_AT_data_member_location[DW_OP_plus_uconst 0x58]
    2834                            .dwattr $C$DW$198, DW_AT_accessibility(DW_ACCESS_public)
    2835                            .dwattr $C$DW$198, DW_AT_decl_file("/Users/jadedh/ti/tirex-content/simplelink_msp432_sdk_1_20_
    2836                            .dwattr $C$DW$198, DW_AT_decl_line(0x39b)
    2837                            .dwattr $C$DW$198, DW_AT_decl_column(0x12)
    2838                    
    2839                            .dwattr $C$DW$T$57, DW_AT_decl_file("/Users/jadedh/ti/tirex-content/simplelink_msp432_sdk_1_20
    2840                            .dwattr $C$DW$T$57, DW_AT_decl_line(0x384)
    2841                            .dwattr $C$DW$T$57, DW_AT_decl_column(0x01)
    2842                            .dwendtag $C$DW$T$57
    2843                    
    2844                    $C$DW$T$199     .dwtag  DW_TAG_typedef
    2845                            .dwattr $C$DW$T$199, DW_AT_name("DWT_Type")
    2846                            .dwattr $C$DW$T$199, DW_AT_type(*$C$DW$T$57)
    2847                            .dwattr $C$DW$T$199, DW_AT_language(DW_LANG_C)
    2848                            .dwattr $C$DW$T$199, DW_AT_decl_file("/Users/jadedh/ti/tirex-content/simplelink_msp432_sdk_1_2
    2849                            .dwattr $C$DW$T$199, DW_AT_decl_line(0x39c)
TI ARM Assembler Unix v16.9.0 Mon Apr  3 01:00:07 2017

Tools Copyright (c) 1996-2015 Texas Instruments Incorporated
joystick_draw3.asm                                                   PAGE   53

    2850                            .dwattr $C$DW$T$199, DW_AT_decl_column(0x03)
    2851                    
    2852                    
    2853                    $C$DW$T$64      .dwtag  DW_TAG_structure_type
    2854                            .dwattr $C$DW$T$64, DW_AT_byte_size(0xfd0)
    2855                    $C$DW$199       .dwtag  DW_TAG_member
    2856                            .dwattr $C$DW$199, DW_AT_type(*$C$DW$T$30)
    2857                            .dwattr $C$DW$199, DW_AT_name("SSPSR")
    2858                            .dwattr $C$DW$199, DW_AT_TI_symbol_name("SSPSR")
    2859                            .dwattr $C$DW$199, DW_AT_data_member_location[DW_OP_plus_uconst 0x0]
    2860                            .dwattr $C$DW$199, DW_AT_accessibility(DW_ACCESS_public)
    2861                            .dwattr $C$DW$199, DW_AT_decl_file("/Users/jadedh/ti/tirex-content/simplelink_msp432_sdk_1_20_
    2862                            .dwattr $C$DW$199, DW_AT_decl_line(0x418)
    2863                            .dwattr $C$DW$199, DW_AT_decl_column(0x12)
    2864                    
    2865                    $C$DW$200       .dwtag  DW_TAG_member
    2866                            .dwattr $C$DW$200, DW_AT_type(*$C$DW$T$30)
    2867                            .dwattr $C$DW$200, DW_AT_name("CSPSR")
    2868                            .dwattr $C$DW$200, DW_AT_TI_symbol_name("CSPSR")
    2869                            .dwattr $C$DW$200, DW_AT_data_member_location[DW_OP_plus_uconst 0x4]
    2870                            .dwattr $C$DW$200, DW_AT_accessibility(DW_ACCESS_public)
    2871                            .dwattr $C$DW$200, DW_AT_decl_file("/Users/jadedh/ti/tirex-content/simplelink_msp432_sdk_1_20_
    2872                            .dwattr $C$DW$200, DW_AT_decl_line(0x419)
    2873                            .dwattr $C$DW$200, DW_AT_decl_column(0x12)
    2874                    
    2875                    $C$DW$201       .dwtag  DW_TAG_member
    2876                            .dwattr $C$DW$201, DW_AT_type(*$C$DW$T$58)
    2877                            .dwattr $C$DW$201, DW_AT_name("RESERVED0")
    2878                            .dwattr $C$DW$201, DW_AT_TI_symbol_name("RESERVED0")
    2879                            .dwattr $C$DW$201, DW_AT_data_member_location[DW_OP_plus_uconst 0x8]
    2880                            .dwattr $C$DW$201, DW_AT_accessibility(DW_ACCESS_public)
    2881                            .dwattr $C$DW$201, DW_AT_decl_file("/Users/jadedh/ti/tirex-content/simplelink_msp432_sdk_1_20_
    2882                            .dwattr $C$DW$201, DW_AT_decl_line(0x41a)
    2883                            .dwattr $C$DW$201, DW_AT_decl_column(0x12)
    2884                    
    2885                    $C$DW$202       .dwtag  DW_TAG_member
    2886                            .dwattr $C$DW$202, DW_AT_type(*$C$DW$T$30)
    2887                            .dwattr $C$DW$202, DW_AT_name("ACPR")
    2888                            .dwattr $C$DW$202, DW_AT_TI_symbol_name("ACPR")
    2889                            .dwattr $C$DW$202, DW_AT_data_member_location[DW_OP_plus_uconst 0x10]
    2890                            .dwattr $C$DW$202, DW_AT_accessibility(DW_ACCESS_public)
    2891                            .dwattr $C$DW$202, DW_AT_decl_file("/Users/jadedh/ti/tirex-content/simplelink_msp432_sdk_1_20_
    2892                            .dwattr $C$DW$202, DW_AT_decl_line(0x41b)
    2893                            .dwattr $C$DW$202, DW_AT_decl_column(0x12)
    2894                    
    2895                    $C$DW$203       .dwtag  DW_TAG_member
    2896                            .dwattr $C$DW$203, DW_AT_type(*$C$DW$T$59)
    2897                            .dwattr $C$DW$203, DW_AT_name("RESERVED1")
