TI ARM Assembler Unix v16.9.0 Sat Apr 29 13:25:12 2017

Tools Copyright (c) 1996-2015 Texas Instruments Incorporated
main.asm                                                             PAGE    1

       1                    ;******************************************************************************
       2                    ;* TI ARM C/C++ Codegen                                      Unix v16.9.0.LTS *
       3                    ;* Date/Time created: Sat Apr 29 13:25:11 2017                                *
       4                    ;******************************************************************************
       5                            .compiler_opts --abi=eabi --arm_vmrs_si_workaround=off --code_state=16 --diag_wrap=off --embed
       6 00000000                   .thumb
       7                    
       8                    $C$DW$CU        .dwtag  DW_TAG_compile_unit
       9                            .dwattr $C$DW$CU, DW_AT_name("../main.c")
      10                            .dwattr $C$DW$CU, DW_AT_producer("TI TI ARM C/C++ Codegen Unix v16.9.0.LTS Copyright (c) 1996-
      11                            .dwattr $C$DW$CU, DW_AT_TI_version(0x01)
      12                            .dwattr $C$DW$CU, DW_AT_comp_dir("/Users/jadedh/Desktop/2017Spring/EC450/workspace/PET/Debug")
      13                    
      14                    $C$DW$1 .dwtag  DW_TAG_subprogram
      15                            .dwattr $C$DW$1, DW_AT_name("_enable_interrupts")
      16                            .dwattr $C$DW$1, DW_AT_TI_symbol_name("_enable_interrupts")
      17                            .dwattr $C$DW$1, DW_AT_type(*$C$DW$T$11)
      18                            .dwattr $C$DW$1, DW_AT_declaration
      19                            .dwattr $C$DW$1, DW_AT_external
      20                            .dwendtag $C$DW$1
      21                    
      22                    
      23                    $C$DW$2 .dwtag  DW_TAG_subprogram
      24                            .dwattr $C$DW$2, DW_AT_name("CS_setDCOCenteredFrequency")
      25                            .dwattr $C$DW$2, DW_AT_TI_symbol_name("CS_setDCOCenteredFrequency")
      26                            .dwattr $C$DW$2, DW_AT_declaration
      27                            .dwattr $C$DW$2, DW_AT_external
      28                            .dwattr $C$DW$2, DW_AT_decl_file("/Users/jadedh/ti/tirex-content/simplelink_msp432_sdk_1_20_00
      29                            .dwattr $C$DW$2, DW_AT_decl_line(0x1cb)
      30                            .dwattr $C$DW$2, DW_AT_decl_column(0x0d)
      31                    $C$DW$3 .dwtag  DW_TAG_formal_parameter
      32                            .dwattr $C$DW$3, DW_AT_type(*$C$DW$T$36)
      33                    
      34                            .dwendtag $C$DW$2
      35                    
      36                    
      37                    $C$DW$4 .dwtag  DW_TAG_subprogram
      38                            .dwattr $C$DW$4, DW_AT_name("Graphics_initContext")
      39                            .dwattr $C$DW$4, DW_AT_TI_symbol_name("Graphics_initContext")
      40                            .dwattr $C$DW$4, DW_AT_declaration
      41                            .dwattr $C$DW$4, DW_AT_external
      42                            .dwattr $C$DW$4, DW_AT_decl_file("/Users/jadedh/ti/tirex-content/simplelink_msp432_sdk_1_20_00
      43                            .dwattr $C$DW$4, DW_AT_decl_line(0x405)
      44                            .dwattr $C$DW$4, DW_AT_decl_column(0x0d)
      45                    $C$DW$5 .dwtag  DW_TAG_formal_parameter
      46                            .dwattr $C$DW$5, DW_AT_type(*$C$DW$T$301)
      47                    
      48                    $C$DW$6 .dwtag  DW_TAG_formal_parameter
      49                            .dwattr $C$DW$6, DW_AT_type(*$C$DW$T$303)
      50                    
      51                    $C$DW$7 .dwtag  DW_TAG_formal_parameter
      52                            .dwattr $C$DW$7, DW_AT_type(*$C$DW$T$188)
      53                    
      54                            .dwendtag $C$DW$4
      55                    
TI ARM Assembler Unix v16.9.0 Sat Apr 29 13:25:12 2017

Tools Copyright (c) 1996-2015 Texas Instruments Incorporated
main.asm                                                             PAGE    2

      56                    
      57                    $C$DW$8 .dwtag  DW_TAG_subprogram
      58                            .dwattr $C$DW$8, DW_AT_name("Graphics_drawImage")
      59                            .dwattr $C$DW$8, DW_AT_TI_symbol_name("Graphics_drawImage")
      60                            .dwattr $C$DW$8, DW_AT_declaration
      61                            .dwattr $C$DW$8, DW_AT_external
      62                            .dwattr $C$DW$8, DW_AT_decl_file("/Users/jadedh/ti/tirex-content/simplelink_msp432_sdk_1_20_00
      63                            .dwattr $C$DW$8, DW_AT_decl_line(0x408)
      64                            .dwattr $C$DW$8, DW_AT_decl_column(0x0d)
      65                    $C$DW$9 .dwtag  DW_TAG_formal_parameter
      66                            .dwattr $C$DW$9, DW_AT_type(*$C$DW$T$300)
      67                    
      68                    $C$DW$10        .dwtag  DW_TAG_formal_parameter
      69                            .dwattr $C$DW$10, DW_AT_type(*$C$DW$T$312)
      70                    
      71                    $C$DW$11        .dwtag  DW_TAG_formal_parameter
      72                            .dwattr $C$DW$11, DW_AT_type(*$C$DW$T$190)
      73                    
      74                    $C$DW$12        .dwtag  DW_TAG_formal_parameter
      75                            .dwattr $C$DW$12, DW_AT_type(*$C$DW$T$190)
      76                    
      77                            .dwendtag $C$DW$8
      78                    
      79                    
      80                    $C$DW$13        .dwtag  DW_TAG_subprogram
      81                            .dwattr $C$DW$13, DW_AT_name("Graphics_drawString")
      82                            .dwattr $C$DW$13, DW_AT_TI_symbol_name("Graphics_drawString")
      83                            .dwattr $C$DW$13, DW_AT_declaration
      84                            .dwattr $C$DW$13, DW_AT_external
      85                            .dwattr $C$DW$13, DW_AT_decl_file("/Users/jadedh/ti/tirex-content/simplelink_msp432_sdk_1_20_0
      86                            .dwattr $C$DW$13, DW_AT_decl_line(0x41d)
      87                            .dwattr $C$DW$13, DW_AT_decl_column(0x0d)
      88                    $C$DW$14        .dwtag  DW_TAG_formal_parameter
      89                            .dwattr $C$DW$14, DW_AT_type(*$C$DW$T$300)
      90                    
      91                    $C$DW$15        .dwtag  DW_TAG_formal_parameter
      92                            .dwattr $C$DW$15, DW_AT_type(*$C$DW$T$333)
      93                    
      94                    $C$DW$16        .dwtag  DW_TAG_formal_parameter
      95                            .dwattr $C$DW$16, DW_AT_type(*$C$DW$T$177)
      96                    
      97                    $C$DW$17        .dwtag  DW_TAG_formal_parameter
      98                            .dwattr $C$DW$17, DW_AT_type(*$C$DW$T$177)
      99                    
     100                    $C$DW$18        .dwtag  DW_TAG_formal_parameter
     101                            .dwattr $C$DW$18, DW_AT_type(*$C$DW$T$177)
     102                    
     103                    $C$DW$19        .dwtag  DW_TAG_formal_parameter
     104                            .dwattr $C$DW$19, DW_AT_type(*$C$DW$T$334)
     105                    
     106                            .dwendtag $C$DW$13
     107                    
     108                    
     109                    $C$DW$20        .dwtag  DW_TAG_subprogram
     110                            .dwattr $C$DW$20, DW_AT_name("Graphics_setBackgroundColor")
TI ARM Assembler Unix v16.9.0 Sat Apr 29 13:25:12 2017

Tools Copyright (c) 1996-2015 Texas Instruments Incorporated
main.asm                                                             PAGE    3

     111                            .dwattr $C$DW$20, DW_AT_TI_symbol_name("Graphics_setBackgroundColor")
     112                            .dwattr $C$DW$20, DW_AT_declaration
     113                            .dwattr $C$DW$20, DW_AT_external
     114                            .dwattr $C$DW$20, DW_AT_decl_file("/Users/jadedh/ti/tirex-content/simplelink_msp432_sdk_1_20_0
     115                            .dwattr $C$DW$20, DW_AT_decl_line(0x42c)
     116                            .dwattr $C$DW$20, DW_AT_decl_column(0x0d)
     117                    $C$DW$21        .dwtag  DW_TAG_formal_parameter
     118                            .dwattr $C$DW$21, DW_AT_type(*$C$DW$T$301)
     119                    
     120                    $C$DW$22        .dwtag  DW_TAG_formal_parameter
     121                            .dwattr $C$DW$22, DW_AT_type(*$C$DW$T$177)
     122                    
     123                            .dwendtag $C$DW$20
     124                    
     125                    
     126                    $C$DW$23        .dwtag  DW_TAG_subprogram
     127                            .dwattr $C$DW$23, DW_AT_name("Graphics_setFont")
     128                            .dwattr $C$DW$23, DW_AT_TI_symbol_name("Graphics_setFont")
     129                            .dwattr $C$DW$23, DW_AT_declaration
     130                            .dwattr $C$DW$23, DW_AT_external
     131                            .dwattr $C$DW$23, DW_AT_decl_file("/Users/jadedh/ti/tirex-content/simplelink_msp432_sdk_1_20_0
     132                            .dwattr $C$DW$23, DW_AT_decl_line(0x430)
     133                            .dwattr $C$DW$23, DW_AT_decl_column(0x0d)
     134                    $C$DW$24        .dwtag  DW_TAG_formal_parameter
     135                            .dwattr $C$DW$24, DW_AT_type(*$C$DW$T$301)
     136                    
     137                    $C$DW$25        .dwtag  DW_TAG_formal_parameter
     138                            .dwattr $C$DW$25, DW_AT_type(*$C$DW$T$184)
     139                    
     140                            .dwendtag $C$DW$23
     141                    
     142                    
     143                    $C$DW$26        .dwtag  DW_TAG_subprogram
     144                            .dwattr $C$DW$26, DW_AT_name("Graphics_setForegroundColor")
     145                            .dwattr $C$DW$26, DW_AT_TI_symbol_name("Graphics_setForegroundColor")
     146                            .dwattr $C$DW$26, DW_AT_declaration
     147                            .dwattr $C$DW$26, DW_AT_external
     148                            .dwattr $C$DW$26, DW_AT_decl_file("/Users/jadedh/ti/tirex-content/simplelink_msp432_sdk_1_20_0
     149                            .dwattr $C$DW$26, DW_AT_decl_line(0x433)
     150                            .dwattr $C$DW$26, DW_AT_decl_column(0x0d)
     151                    $C$DW$27        .dwtag  DW_TAG_formal_parameter
     152                            .dwattr $C$DW$27, DW_AT_type(*$C$DW$T$301)
     153                    
     154                    $C$DW$28        .dwtag  DW_TAG_formal_parameter
     155                            .dwattr $C$DW$28, DW_AT_type(*$C$DW$T$177)
     156                    
     157                            .dwendtag $C$DW$26
     158                    
     159                    
     160                    $C$DW$29        .dwtag  DW_TAG_subprogram
     161                            .dwattr $C$DW$29, DW_AT_name("Graphics_drawStringCentered")
     162                            .dwattr $C$DW$29, DW_AT_TI_symbol_name("Graphics_drawStringCentered")
     163                            .dwattr $C$DW$29, DW_AT_declaration
     164                            .dwattr $C$DW$29, DW_AT_external
     165                            .dwattr $C$DW$29, DW_AT_decl_file("/Users/jadedh/ti/tirex-content/simplelink_msp432_sdk_1_20_0
TI ARM Assembler Unix v16.9.0 Sat Apr 29 13:25:12 2017

Tools Copyright (c) 1996-2015 Texas Instruments Incorporated
main.asm                                                             PAGE    4

     166                            .dwattr $C$DW$29, DW_AT_decl_line(0x442)
     167                            .dwattr $C$DW$29, DW_AT_decl_column(0x0d)
     168                    $C$DW$30        .dwtag  DW_TAG_formal_parameter
     169                            .dwattr $C$DW$30, DW_AT_type(*$C$DW$T$300)
     170                    
     171                    $C$DW$31        .dwtag  DW_TAG_formal_parameter
     172                            .dwattr $C$DW$31, DW_AT_type(*$C$DW$T$333)
     173                    
     174                    $C$DW$32        .dwtag  DW_TAG_formal_parameter
     175                            .dwattr $C$DW$32, DW_AT_type(*$C$DW$T$177)
     176                    
     177                    $C$DW$33        .dwtag  DW_TAG_formal_parameter
     178                            .dwattr $C$DW$33, DW_AT_type(*$C$DW$T$177)
     179                    
     180                    $C$DW$34        .dwtag  DW_TAG_formal_parameter
     181                            .dwattr $C$DW$34, DW_AT_type(*$C$DW$T$177)
     182                    
     183                    $C$DW$35        .dwtag  DW_TAG_formal_parameter
     184                            .dwattr $C$DW$35, DW_AT_type(*$C$DW$T$334)
     185                    
     186                            .dwendtag $C$DW$29
     187                    
     188                    
     189                    $C$DW$36        .dwtag  DW_TAG_subprogram
     190                            .dwattr $C$DW$36, DW_AT_name("Graphics_clearDisplay")
     191                            .dwattr $C$DW$36, DW_AT_TI_symbol_name("Graphics_clearDisplay")
     192                            .dwattr $C$DW$36, DW_AT_declaration
     193                            .dwattr $C$DW$36, DW_AT_external
     194                            .dwattr $C$DW$36, DW_AT_decl_file("/Users/jadedh/ti/tirex-content/simplelink_msp432_sdk_1_20_0
     195                            .dwattr $C$DW$36, DW_AT_decl_line(0x460)
     196                            .dwattr $C$DW$36, DW_AT_decl_column(0x0d)
     197                    $C$DW$37        .dwtag  DW_TAG_formal_parameter
     198                            .dwattr $C$DW$37, DW_AT_type(*$C$DW$T$300)
     199                    
     200                            .dwendtag $C$DW$36
     201                    
     202                    
     203                    $C$DW$38        .dwtag  DW_TAG_subprogram
     204                            .dwattr $C$DW$38, DW_AT_name("Crystalfontz128x128_Init")
     205                            .dwattr $C$DW$38, DW_AT_TI_symbol_name("Crystalfontz128x128_Init")
     206                            .dwattr $C$DW$38, DW_AT_declaration
     207                            .dwattr $C$DW$38, DW_AT_external
     208                            .dwattr $C$DW$38, DW_AT_decl_file("../LcdDriver/Crystalfontz128x128_ST7735.h")
     209                            .dwattr $C$DW$38, DW_AT_decl_line(0x68)
     210                            .dwattr $C$DW$38, DW_AT_decl_column(0x0d)
     211                            .dwendtag $C$DW$38
     212                    
     213                    
     214                    $C$DW$39        .dwtag  DW_TAG_subprogram
     215                            .dwattr $C$DW$39, DW_AT_name("Crystalfontz128x128_SetOrientation")
     216                            .dwattr $C$DW$39, DW_AT_TI_symbol_name("Crystalfontz128x128_SetOrientation")
     217                            .dwattr $C$DW$39, DW_AT_declaration
     218                            .dwattr $C$DW$39, DW_AT_external
     219                            .dwattr $C$DW$39, DW_AT_decl_file("../LcdDriver/Crystalfontz128x128_ST7735.h")
     220                            .dwattr $C$DW$39, DW_AT_decl_line(0x6c)
TI ARM Assembler Unix v16.9.0 Sat Apr 29 13:25:12 2017

Tools Copyright (c) 1996-2015 Texas Instruments Incorporated
main.asm                                                             PAGE    5

     221                            .dwattr $C$DW$39, DW_AT_decl_column(0x0d)
     222                    $C$DW$40        .dwtag  DW_TAG_formal_parameter
     223                            .dwattr $C$DW$40, DW_AT_type(*$C$DW$T$19)
     224                    
     225                            .dwendtag $C$DW$39
     226                    
     227                    
     228                    $C$DW$41        .dwtag  DW_TAG_subprogram
     229                            .dwattr $C$DW$41, DW_AT_name("sprintf")
     230                            .dwattr $C$DW$41, DW_AT_TI_symbol_name("sprintf")
     231                            .dwattr $C$DW$41, DW_AT_type(*$C$DW$T$10)
     232                            .dwattr $C$DW$41, DW_AT_declaration
     233                            .dwattr $C$DW$41, DW_AT_external
     234                            .dwattr $C$DW$41, DW_AT_decl_file("/Applications/ti/ccsv7/tools/compiler/ti-cgt-arm_16.9.0.LTS
     235                            .dwattr $C$DW$41, DW_AT_decl_line(0xf9)
     236                            .dwattr $C$DW$41, DW_AT_decl_column(0x19)
     237                    $C$DW$42        .dwtag  DW_TAG_formal_parameter
     238                            .dwattr $C$DW$42, DW_AT_type(*$C$DW$T$370)
     239                    
     240                    $C$DW$43        .dwtag  DW_TAG_formal_parameter
     241                            .dwattr $C$DW$43, DW_AT_type(*$C$DW$T$372)
     242                    
     243                    $C$DW$44        .dwtag  DW_TAG_unspecified_parameters
     244                    
     245                            .dwendtag $C$DW$41
     246                    
     247                    $C$DW$45        .dwtag  DW_TAG_variable
     248                            .dwattr $C$DW$45, DW_AT_name("g_sFontFixed6x8")
     249                            .dwattr $C$DW$45, DW_AT_TI_symbol_name("g_sFontFixed6x8")
     250                            .dwattr $C$DW$45, DW_AT_type(*$C$DW$T$183)
     251                            .dwattr $C$DW$45, DW_AT_declaration
     252                            .dwattr $C$DW$45, DW_AT_external
     253                            .dwattr $C$DW$45, DW_AT_decl_file("/Users/jadedh/ti/tirex-content/simplelink_msp432_sdk_1_20_0
     254                            .dwattr $C$DW$45, DW_AT_decl_line(0x3cb)
     255                            .dwattr $C$DW$45, DW_AT_decl_column(0x1c)
     256                    
     257                    $C$DW$46        .dwtag  DW_TAG_variable
     258                            .dwattr $C$DW$46, DW_AT_name("g_sCrystalfontz128x128")
     259                            .dwattr $C$DW$46, DW_AT_TI_symbol_name("g_sCrystalfontz128x128")
     260                            .dwattr $C$DW$46, DW_AT_type(*$C$DW$T$178)
     261                            .dwattr $C$DW$46, DW_AT_declaration
     262                            .dwattr $C$DW$46, DW_AT_external
     263                            .dwattr $C$DW$46, DW_AT_decl_file("../LcdDriver/Crystalfontz128x128_ST7735.h")
     264                            .dwattr $C$DW$46, DW_AT_decl_line(0x64)
     265                            .dwattr $C$DW$46, DW_AT_decl_column(0x19)
     266                    
     267                    $C$DW$47        .dwtag  DW_TAG_variable
     268                            .dwattr $C$DW$47, DW_AT_name("g_sCrystalfontz128x128_funcs")
     269                            .dwattr $C$DW$47, DW_AT_TI_symbol_name("g_sCrystalfontz128x128_funcs")
     270                            .dwattr $C$DW$47, DW_AT_type(*$C$DW$T$187)
     271                            .dwattr $C$DW$47, DW_AT_declaration
     272                            .dwattr $C$DW$47, DW_AT_external
     273                            .dwattr $C$DW$47, DW_AT_decl_file("../LcdDriver/Crystalfontz128x128_ST7735.h")
     274                            .dwattr $C$DW$47, DW_AT_decl_line(0x66)
     275                            .dwattr $C$DW$47, DW_AT_decl_column(0x29)
TI ARM Assembler Unix v16.9.0 Sat Apr 29 13:25:12 2017

Tools Copyright (c) 1996-2015 Texas Instruments Incorporated
main.asm                                                             PAGE    6

     276                    
     277                    $C$DW$48        .dwtag  DW_TAG_variable
     278                            .dwattr $C$DW$48, DW_AT_name("eat14BPP_UNCOMP")
     279                            .dwattr $C$DW$48, DW_AT_TI_symbol_name("eat14BPP_UNCOMP")
     280                            .dwattr $C$DW$48, DW_AT_type(*$C$DW$T$311)
     281                            .dwattr $C$DW$48, DW_AT_declaration
     282                            .dwattr $C$DW$48, DW_AT_external
     283                            .dwattr $C$DW$48, DW_AT_decl_file("../pet_graphics.h")
     284                            .dwattr $C$DW$48, DW_AT_decl_line(0x0f)
     285                            .dwattr $C$DW$48, DW_AT_decl_column(0x1d)
     286                    
     287                    $C$DW$49        .dwtag  DW_TAG_variable
     288                            .dwattr $C$DW$49, DW_AT_name("happy14BPP_UNCOMP")
     289                            .dwattr $C$DW$49, DW_AT_TI_symbol_name("happy14BPP_UNCOMP")
     290                            .dwattr $C$DW$49, DW_AT_type(*$C$DW$T$311)
     291                            .dwattr $C$DW$49, DW_AT_declaration
     292                            .dwattr $C$DW$49, DW_AT_external
     293                            .dwattr $C$DW$49, DW_AT_decl_file("../pet_graphics.h")
     294                            .dwattr $C$DW$49, DW_AT_decl_line(0x13)
     295                            .dwattr $C$DW$49, DW_AT_decl_column(0x1d)
     296                    
     297                    $C$DW$50        .dwtag  DW_TAG_variable
     298                            .dwattr $C$DW$50, DW_AT_name("happy24BPP_UNCOMP")
     299                            .dwattr $C$DW$50, DW_AT_TI_symbol_name("happy24BPP_UNCOMP")
     300                            .dwattr $C$DW$50, DW_AT_type(*$C$DW$T$311)
     301                            .dwattr $C$DW$50, DW_AT_declaration
     302                            .dwattr $C$DW$50, DW_AT_external
     303                            .dwattr $C$DW$50, DW_AT_decl_file("../pet_graphics.h")
     304                            .dwattr $C$DW$50, DW_AT_decl_line(0x14)
     305                            .dwattr $C$DW$50, DW_AT_decl_column(0x1d)
     306                    
     307                    $C$DW$51        .dwtag  DW_TAG_variable
     308                            .dwattr $C$DW$51, DW_AT_name("happy34BPP_UNCOMP")
     309                            .dwattr $C$DW$51, DW_AT_TI_symbol_name("happy34BPP_UNCOMP")
     310                            .dwattr $C$DW$51, DW_AT_type(*$C$DW$T$311)
     311                            .dwattr $C$DW$51, DW_AT_declaration
     312                            .dwattr $C$DW$51, DW_AT_external
     313                            .dwattr $C$DW$51, DW_AT_decl_file("../pet_graphics.h")
     314                            .dwattr $C$DW$51, DW_AT_decl_line(0x15)
     315                            .dwattr $C$DW$51, DW_AT_decl_column(0x1d)
     316                    
     317                    $C$DW$52        .dwtag  DW_TAG_variable
     318                            .dwattr $C$DW$52, DW_AT_name("normal14BPP_UNCOMP")
     319                            .dwattr $C$DW$52, DW_AT_TI_symbol_name("normal14BPP_UNCOMP")
     320                            .dwattr $C$DW$52, DW_AT_type(*$C$DW$T$311)
     321                            .dwattr $C$DW$52, DW_AT_declaration
     322                            .dwattr $C$DW$52, DW_AT_external
     323                            .dwattr $C$DW$52, DW_AT_decl_file("../pet_graphics.h")
     324                            .dwattr $C$DW$52, DW_AT_decl_line(0x17)
     325                            .dwattr $C$DW$52, DW_AT_decl_column(0x1d)
     326                    
     327                    $C$DW$53        .dwtag  DW_TAG_variable
     328                            .dwattr $C$DW$53, DW_AT_name("unhappy14BPP_UNCOMP")
     329                            .dwattr $C$DW$53, DW_AT_TI_symbol_name("unhappy14BPP_UNCOMP")
     330                            .dwattr $C$DW$53, DW_AT_type(*$C$DW$T$311)
TI ARM Assembler Unix v16.9.0 Sat Apr 29 13:25:12 2017

Tools Copyright (c) 1996-2015 Texas Instruments Incorporated
main.asm                                                             PAGE    7

     331                            .dwattr $C$DW$53, DW_AT_declaration
     332                            .dwattr $C$DW$53, DW_AT_external
     333                            .dwattr $C$DW$53, DW_AT_decl_file("../pet_graphics.h")
     334                            .dwattr $C$DW$53, DW_AT_decl_line(0x1b)
     335                            .dwattr $C$DW$53, DW_AT_decl_column(0x1d)
     336                    
     337                    $C$DW$54        .dwtag  DW_TAG_variable
     338                            .dwattr $C$DW$54, DW_AT_name("walk14BPP_UNCOMP")
     339                            .dwattr $C$DW$54, DW_AT_TI_symbol_name("walk14BPP_UNCOMP")
     340                            .dwattr $C$DW$54, DW_AT_type(*$C$DW$T$311)
     341                            .dwattr $C$DW$54, DW_AT_declaration
     342                            .dwattr $C$DW$54, DW_AT_external
     343                            .dwattr $C$DW$54, DW_AT_decl_file("../pet_graphics.h")
     344                            .dwattr $C$DW$54, DW_AT_decl_line(0x1f)
     345                            .dwattr $C$DW$54, DW_AT_decl_column(0x1d)
     346                    
     347                    $C$DW$55        .dwtag  DW_TAG_variable
     348                            .dwattr $C$DW$55, DW_AT_name("play14BPP_UNCOMP")
     349                            .dwattr $C$DW$55, DW_AT_TI_symbol_name("play14BPP_UNCOMP")
     350                            .dwattr $C$DW$55, DW_AT_type(*$C$DW$T$311)
     351                            .dwattr $C$DW$55, DW_AT_declaration
     352                            .dwattr $C$DW$55, DW_AT_external
     353                            .dwattr $C$DW$55, DW_AT_decl_file("../pet_graphics.h")
     354                            .dwattr $C$DW$55, DW_AT_decl_line(0x23)
     355                            .dwattr $C$DW$55, DW_AT_decl_column(0x1d)
     356                    
     357                            .global g_sContext
     358                            .common g_sContext,28,4
     359                    $C$DW$56        .dwtag  DW_TAG_variable
     360                            .dwattr $C$DW$56, DW_AT_name("g_sContext")
     361                            .dwattr $C$DW$56, DW_AT_TI_symbol_name("g_sContext")
     362                            .dwattr $C$DW$56, DW_AT_location[DW_OP_addr g_sContext]
     363                            .dwattr $C$DW$56, DW_AT_type(*$C$DW$T$298)
     364                            .dwattr $C$DW$56, DW_AT_external
     365                            .dwattr $C$DW$56, DW_AT_decl_file("../pet_graphics.h")
     366                            .dwattr $C$DW$56, DW_AT_decl_line(0x29)
     367                            .dwattr $C$DW$56, DW_AT_decl_column(0x12)
     368                    
     369                            .global loop
     370 00000000                   .data
     371                            .align  4
     372                            .elfsym loop,SYM_SIZE(4)
     373 00000000           loop:
     374 00000000 00000000          .bits   0,32                    ; loop @ 0
     375                    
     376                    $C$DW$57        .dwtag  DW_TAG_variable
     377                            .dwattr $C$DW$57, DW_AT_name("loop")
     378                            .dwattr $C$DW$57, DW_AT_TI_symbol_name("loop")
     379                            .dwattr $C$DW$57, DW_AT_location[DW_OP_addr loop]
     380                            .dwattr $C$DW$57, DW_AT_type(*$C$DW$T$10)
     381                            .dwattr $C$DW$57, DW_AT_external
     382                            .dwattr $C$DW$57, DW_AT_decl_file("../pet_graphics.h")
     383                            .dwattr $C$DW$57, DW_AT_decl_line(0x2f)
     384                            .dwattr $C$DW$57, DW_AT_decl_column(0x05)
     385                    
TI ARM Assembler Unix v16.9.0 Sat Apr 29 13:25:12 2017

Tools Copyright (c) 1996-2015 Texas Instruments Incorporated
main.asm                                                             PAGE    8

     386                            .global half_period
     387                            .common half_period,4,4
     388                    $C$DW$58        .dwtag  DW_TAG_variable
     389                            .dwattr $C$DW$58, DW_AT_name("half_period")
     390                            .dwattr $C$DW$58, DW_AT_TI_symbol_name("half_period")
     391                            .dwattr $C$DW$58, DW_AT_location[DW_OP_addr half_period]
     392                            .dwattr $C$DW$58, DW_AT_type(*$C$DW$T$385)
     393                            .dwattr $C$DW$58, DW_AT_external
     394                            .dwattr $C$DW$58, DW_AT_decl_file("../main.c")
     395                            .dwattr $C$DW$58, DW_AT_decl_line(0x20)
     396                            .dwattr $C$DW$58, DW_AT_decl_column(0x17)
     397                    
     398                            .global state
     399 00000004                   .data
     400                            .align  4
     401                            .elfsym state,SYM_SIZE(4)
     402 00000004           state:
     403 00000004 00000000          .bits   0,32                    ; state @ 0
     404                    
     405                    $C$DW$59        .dwtag  DW_TAG_variable
     406                            .dwattr $C$DW$59, DW_AT_name("state")
     407                            .dwattr $C$DW$59, DW_AT_TI_symbol_name("state")
     408                            .dwattr $C$DW$59, DW_AT_location[DW_OP_addr state]
     409                            .dwattr $C$DW$59, DW_AT_type(*$C$DW$T$385)
     410                            .dwattr $C$DW$59, DW_AT_external
     411                            .dwattr $C$DW$59, DW_AT_decl_file("../main.c")
     412                            .dwattr $C$DW$59, DW_AT_decl_line(0x21)
     413                            .dwattr $C$DW$59, DW_AT_decl_column(0x17)
     414                    
     415                            .global health
     416 00000008                   .data
     417                            .align  4
     418                            .elfsym health,SYM_SIZE(4)
     419 00000008           health:
     420 00000008 00000064          .bits   100,32                  ; health @ 0
     421                    
     422                    $C$DW$60        .dwtag  DW_TAG_variable
     423                            .dwattr $C$DW$60, DW_AT_name("health")
     424                            .dwattr $C$DW$60, DW_AT_TI_symbol_name("health")
     425                            .dwattr $C$DW$60, DW_AT_location[DW_OP_addr health]
     426                            .dwattr $C$DW$60, DW_AT_type(*$C$DW$T$375)
     427                            .dwattr $C$DW$60, DW_AT_external
     428                            .dwattr $C$DW$60, DW_AT_decl_file("../main.c")
     429                            .dwattr $C$DW$60, DW_AT_decl_line(0x22)
     430                            .dwattr $C$DW$60, DW_AT_decl_column(0x0e)
     431                    
     432                    ;       /Applications/ti/ccsv7/tools/compiler/ti-cgt-arm_16.9.0.LTS/bin/armopt /var/tmp/22820AGVVaV /v
     433 00000000                   .sect   ".text:mapports"
     434                            .clink
     435                            .thumbfunc mapports
     436 00000000                   .thumb
     437                            .global mapports
     438                    
     439                    $C$DW$61        .dwtag  DW_TAG_subprogram
     440                            .dwattr $C$DW$61, DW_AT_name("mapports")
TI ARM Assembler Unix v16.9.0 Sat Apr 29 13:25:12 2017

Tools Copyright (c) 1996-2015 Texas Instruments Incorporated
main.asm                                                             PAGE    9

     441                            .dwattr $C$DW$61, DW_AT_low_pc(mapports)
     442                            .dwattr $C$DW$61, DW_AT_high_pc(0x00)
     443                            .dwattr $C$DW$61, DW_AT_TI_symbol_name("mapports")
     444                            .dwattr $C$DW$61, DW_AT_external
     445                            .dwattr $C$DW$61, DW_AT_TI_begin_file("../main.c")
     446                            .dwattr $C$DW$61, DW_AT_TI_begin_line(0x73)
     447                            .dwattr $C$DW$61, DW_AT_TI_begin_column(0x06)
     448                            .dwattr $C$DW$61, DW_AT_decl_file("../main.c")
     449                            .dwattr $C$DW$61, DW_AT_decl_line(0x73)
     450                            .dwattr $C$DW$61, DW_AT_decl_column(0x06)
     451                            .dwattr $C$DW$61, DW_AT_TI_max_frame_size(0x00)
     452                            .dwpsn  file "../main.c",line 115,column 16,is_stmt,address mapports,isa 1
     453                    
     454                            .dwfde $C$DW$CIE, mapports
     455                    ;----------------------------------------------------------------------
     456                    ; 115 | void mapports(){                                                       
     457                    ;----------------------------------------------------------------------
     458                    
     459                    ;*****************************************************************************
     460                    ;* FUNCTION NAME: mapports                                                   *
     461                    ;*                                                                           *
     462                    ;*   Regs Modified     : A1,A2,SR                                            *
     463                    ;*   Regs Used         : A1,A2,LR,SR                                         *
     464                    ;*   Local Frame Size  : 0 Args + 0 Auto + 0 Save = 0 byte                   *
     465                    ;*****************************************************************************
     466 00000000           mapports:
     467                    ;* --------------------------------------------------------------------------*
     468                    ;* A1    assigned to $O$C1
     469                            .dwcfi  cfa_offset, 0
     470                            .dwpsn  file "../main.c",line 116,column 5,is_stmt,isa 1
     471                    ;----------------------------------------------------------------------
     472                    ; 116 | PMAP->KEYID=PMAP_KEYID_VAL; // unlock PMAP                             
     473                    ;----------------------------------------------------------------------
     474 00000000 4804              LDR       A1, $C$CON1           ; [DPU_3_PIPE] |116|  ; [ORIG 16-BIT INS]
     475 00000002 5152F642          MOV       A2, #11602            ; [DPU_3_PIPE] |116|  ; [KEEP 32-BIT INS]
     476 00000006 8001              STRH      A2, [A1, #0]          ; [DPU_3_PIPE] |116|  ; [ORIG 16-BIT INS]
     477                            .dwpsn  file "../main.c",line 117,column 5,is_stmt,isa 1
     478                    ;----------------------------------------------------------------------
     479                    ; 117 | P2MAP->PMAP_REGISTER7=PMAP_TA0CCR0A;  // map TA0CCR0 to P2.7 as primary
     480                    ;     |  module                                                                
     481                    ;----------------------------------------------------------------------
     482 00000008 2113              MOVS      A2, #19               ; [DPU_3_PIPE] |117|  ; [ORIG 16-BIT INS]
     483 0000000a 75C1              STRB      A2, [A1, #23]         ; [DPU_3_PIPE] |117|  ; [ORIG 16-BIT INS]
     484                            .dwpsn  file "../main.c",line 118,column 5,is_stmt,isa 1
     485                    ;----------------------------------------------------------------------
     486                    ; 118 | PMAP->KEYID=0;               // relock PMAP until next hard reset      
     487                    ;----------------------------------------------------------------------
     488 0000000c 2100              MOVS      A2, #0                ; [DPU_3_PIPE] |118|  ; [ORIG 16-BIT INS]
     489 0000000e 8001              STRH      A2, [A1, #0]          ; [DPU_3_PIPE] |118|  ; [ORIG 16-BIT INS]
     490                    $C$DW$62        .dwtag  DW_TAG_TI_branch
     491                            .dwattr $C$DW$62, DW_AT_low_pc(0x00)
     492                            .dwattr $C$DW$62, DW_AT_TI_return
     493                    
     494 00000010 4770              BX        LR                    ; [DPU_3_PIPE]  ; [ORIG 16-BIT INS]
     495                            ; BRANCH OCCURS                  ; [] 
TI ARM Assembler Unix v16.9.0 Sat Apr 29 13:25:12 2017

Tools Copyright (c) 1996-2015 Texas Instruments Incorporated
main.asm                                                             PAGE   10

     496                            .dwattr $C$DW$61, DW_AT_TI_end_file("../main.c")
     497                            .dwattr $C$DW$61, DW_AT_TI_end_line(0x77)
     498                            .dwattr $C$DW$61, DW_AT_TI_end_column(0x01)
     499                            .dwendentry
     500                            .dwendtag $C$DW$61
     501                    
     502 00000000                   .sect   ".text:init_timer"
     503                            .clink
     504                            .thumbfunc init_timer
     505 00000000                   .thumb
     506                            .global init_timer
     507                    
     508                    $C$DW$63        .dwtag  DW_TAG_subprogram
     509                            .dwattr $C$DW$63, DW_AT_name("init_timer")
     510                            .dwattr $C$DW$63, DW_AT_low_pc(init_timer)
     511                            .dwattr $C$DW$63, DW_AT_high_pc(0x00)
     512                            .dwattr $C$DW$63, DW_AT_TI_symbol_name("init_timer")
     513                            .dwattr $C$DW$63, DW_AT_external
     514                            .dwattr $C$DW$63, DW_AT_TI_begin_file("../main.c")
     515                            .dwattr $C$DW$63, DW_AT_TI_begin_line(0x7a)
     516                            .dwattr $C$DW$63, DW_AT_TI_begin_column(0x06)
     517                            .dwattr $C$DW$63, DW_AT_decl_file("../main.c")
     518                            .dwattr $C$DW$63, DW_AT_decl_line(0x7a)
     519                            .dwattr $C$DW$63, DW_AT_decl_column(0x06)
     520                            .dwattr $C$DW$63, DW_AT_TI_max_frame_size(0x00)
     521                            .dwpsn  file "../main.c",line 123,column 1,is_stmt,address init_timer,isa 1
     522                    
     523                            .dwfde $C$DW$CIE, init_timer
     524                    ;----------------------------------------------------------------------
     525                    ; 122 | void init_timer()                                                      
     526                    ; 123 | {  // initialization and start of timer                                
     527                    ;----------------------------------------------------------------------
     528                    
     529                    ;*****************************************************************************
     530                    ;* FUNCTION NAME: init_timer                                                 *
     531                    ;*                                                                           *
     532                    ;*   Regs Modified     : A1,A2,A3,A4,SR                                      *
     533                    ;*   Regs Used         : A1,A2,A3,A4,LR,SR                                   *
     534                    ;*   Local Frame Size  : 0 Args + 0 Auto + 0 Save = 0 byte                   *
     535                    ;*****************************************************************************
     536 00000000           init_timer:
     537                    ;* --------------------------------------------------------------------------*
     538                    ;* A2    assigned to $O$C1
     539                    ;* A3    assigned to $O$C2
     540                            .dwcfi  cfa_offset, 0
     541                            .dwpsn  file "../main.c",line 124,column 5,is_stmt,isa 1
     542                    ;----------------------------------------------------------------------
     543                    ; 124 | half_period=initialHalfPeriod;                                         
     544                    ;----------------------------------------------------------------------
     545 00000000 490D              LDR       A2, $C$CON2           ; [DPU_3_PIPE] |124|  ; [ORIG 16-BIT INS]
     546 00000002 70FAF44F          MOV       A1, #500              ; [DPU_3_PIPE] |124|  ; [KEEP 32-BIT INS]
     547                            .dwpsn  file "../main.c",line 125,column 5,is_stmt,isa 1
     548                    ;----------------------------------------------------------------------
     549                    ; 125 | TIMER_A0->CTL |= TIMER_A_CTL_CLR ;// reset clock                       
     550                    ;----------------------------------------------------------------------
TI ARM Assembler Unix v16.9.0 Sat Apr 29 13:25:12 2017

Tools Copyright (c) 1996-2015 Texas Instruments Incorporated
main.asm                                                             PAGE   11

     551 00000006 4280F04F          MOV       A3, #1073741824       ; [DPU_3_PIPE] |125|  ; [KEEP 32-BIT INS]
     552                            .dwpsn  file "../main.c",line 124,column 5,is_stmt,isa 1
     553 0000000a 6008              STR       A1, [A2, #0]          ; [DPU_3_PIPE] |124|  ; [ORIG 16-BIT INS]
     554                            .dwpsn  file "../main.c",line 125,column 5,is_stmt,isa 1
     555 0000000c 8810              LDRH      A1, [A3, #0]          ; [DPU_3_PIPE] |125|  ; [ORIG 16-BIT INS]
     556                            .dwpsn  file "../main.c",line 126,column 5,is_stmt,isa 1
     557                    ;----------------------------------------------------------------------
     558                    ; 126 | TIMER_A0->CTL =  TIMER_A_CTL_TASSEL_2  // clock source = SMCLK         
     559                    ; 127 |                 +TIMER_A_CTL_ID_0      // clock prescale=1             
     560                    ; 128 |                 +TIMER_A_CTL_MC_1;     // Up Mode                      
     561                    ;----------------------------------------------------------------------
     562 0000000e 7304F44F          MOV       A4, #528              ; [DPU_3_PIPE] |126|  ; [KEEP 32-BIT INS]
     563                            .dwpsn  file "../main.c",line 125,column 5,is_stmt,isa 1
     564 00000012 0004F040          ORR       A1, A1, #4            ; [DPU_3_PIPE] |125|  ; [KEEP 32-BIT INS]
     565 00000016 8010              STRH      A1, [A3, #0]          ; [DPU_3_PIPE] |125|  ; [ORIG 16-BIT INS]
     566                            .dwpsn  file "../main.c",line 129,column 5,is_stmt,isa 1
     567                    ;----------------------------------------------------------------------
     568                    ; 129 | TIMER_A0->EX0 = TIMER_A_EX0_TAIDEX_2;  // additional divisor=3         
     569                    ;----------------------------------------------------------------------
     570 00000018 2102              MOVS      A2, #2                ; [DPU_3_PIPE] |129|  ; [ORIG 16-BIT INS]
     571                            .dwpsn  file "../main.c",line 126,column 5,is_stmt,isa 1
     572 0000001a 8013              STRH      A4, [A3, #0]          ; [DPU_3_PIPE] |126|  ; [ORIG 16-BIT INS]
     573                            .dwpsn  file "../main.c",line 131,column 5,is_stmt,isa 1
     574                    ;----------------------------------------------------------------------
     575                    ; 131 | TIMER_A0->CCTL[0]=TIMER_A_CCTLN_OUTMOD_4+TIMER_A_CCTLN_CCIE; // compare
     576                    ;     |  mode, output mode 4 (toggle)                                          
     577                    ; 132 | //if state=0                                                           
     578                    ; 133 | // TIMER_A0->CCR[0] = TIMER_A0->R+bella_ciao_note[0]; // in up mode TAR
     579                    ;     | =0... TACCRO-1                                                         
     580                    ;----------------------------------------------------------------------
     581 0000001c 2090              MOVS      A1, #144              ; [DPU_3_PIPE] |131|  ; [ORIG 16-BIT INS]
     582                            .dwpsn  file "../main.c",line 129,column 5,is_stmt,isa 1
     583 0000001e 8411              STRH      A2, [A3, #32]         ; [DPU_3_PIPE] |129|  ; [ORIG 16-BIT INS]
     584                            .dwpsn  file "../main.c",line 134,column 5,is_stmt,isa 1
     585                    ;----------------------------------------------------------------------
     586                    ; 134 | P2->SEL0|=BIT7; // connect timer output to pin (select alternate functi
     587                    ;     | on for pin)                                                            
     588                    ;----------------------------------------------------------------------
     589 00000020 4906              LDR       A2, $C$CON3           ; [DPU_3_PIPE] |134|  ; [ORIG 16-BIT INS]
     590                            .dwpsn  file "../main.c",line 131,column 5,is_stmt,isa 1
     591 00000022 8050              STRH      A1, [A3, #2]          ; [DPU_3_PIPE] |131|  ; [ORIG 16-BIT INS]
     592                            .dwpsn  file "../main.c",line 134,column 5,is_stmt,isa 1
     593 00000024 7AC8              LDRB      A1, [A2, #11]         ; [DPU_3_PIPE] |134|  ; [ORIG 16-BIT INS]
     594 00000026 0080F040          ORR       A1, A1, #128          ; [DPU_3_PIPE] |134|  ; [KEEP 32-BIT INS]
     595 0000002a 72C8              STRB      A1, [A2, #11]         ; [DPU_3_PIPE] |134|  ; [ORIG 16-BIT INS]
     596                            .dwpsn  file "../main.c",line 135,column 5,is_stmt,isa 1
     597                    ;----------------------------------------------------------------------
     598                    ; 135 | P2->DIR |=BIT7; // output mode on P2.7 (direction output completes sett
     599                    ;     | ing the function)                                                      
     600                    ;----------------------------------------------------------------------
     601 0000002c 7948              LDRB      A1, [A2, #5]          ; [DPU_3_PIPE] |135|  ; [ORIG 16-BIT INS]
     602 0000002e 0080F040          ORR       A1, A1, #128          ; [DPU_3_PIPE] |135|  ; [KEEP 32-BIT INS]
     603 00000032 7148              STRB      A1, [A2, #5]          ; [DPU_3_PIPE] |135|  ; [ORIG 16-BIT INS]
     604                    $C$DW$64        .dwtag  DW_TAG_TI_branch
     605                            .dwattr $C$DW$64, DW_AT_low_pc(0x00)
TI ARM Assembler Unix v16.9.0 Sat Apr 29 13:25:12 2017

Tools Copyright (c) 1996-2015 Texas Instruments Incorporated
main.asm                                                             PAGE   12

     606                            .dwattr $C$DW$64, DW_AT_TI_return
     607                    
     608 00000034 4770              BX        LR                    ; [DPU_3_PIPE]  ; [ORIG 16-BIT INS]
     609                            ; BRANCH OCCURS                  ; [] 
     610                            .dwattr $C$DW$63, DW_AT_TI_end_file("../main.c")
     611                            .dwattr $C$DW$63, DW_AT_TI_end_line(0x88)
     612                            .dwattr $C$DW$63, DW_AT_TI_end_column(0x01)
     613                            .dwendentry
     614                            .dwendtag $C$DW$63
     615                    
     616 00000000                   .sect   ".text:init_button"
     617                            .clink
     618                            .thumbfunc init_button
     619 00000000                   .thumb
     620                            .global init_button
     621                    
     622                    $C$DW$65        .dwtag  DW_TAG_subprogram
     623                            .dwattr $C$DW$65, DW_AT_name("init_button")
     624                            .dwattr $C$DW$65, DW_AT_low_pc(init_button)
     625                            .dwattr $C$DW$65, DW_AT_high_pc(0x00)
     626                            .dwattr $C$DW$65, DW_AT_TI_symbol_name("init_button")
     627                            .dwattr $C$DW$65, DW_AT_external
     628                            .dwattr $C$DW$65, DW_AT_TI_begin_file("../main.c")
     629                            .dwattr $C$DW$65, DW_AT_TI_begin_line(0x91)
     630                            .dwattr $C$DW$65, DW_AT_TI_begin_column(0x06)
     631                            .dwattr $C$DW$65, DW_AT_decl_file("../main.c")
     632                            .dwattr $C$DW$65, DW_AT_decl_line(0x91)
     633                            .dwattr $C$DW$65, DW_AT_decl_column(0x06)
     634                            .dwattr $C$DW$65, DW_AT_TI_max_frame_size(0x00)
     635                            .dwpsn  file "../main.c",line 146,column 1,is_stmt,address init_button,isa 1
     636                    
     637                            .dwfde $C$DW$CIE, init_button
     638                    ;----------------------------------------------------------------------
     639                    ; 145 | void init_button() //intializing the values of buttons                 
     640                    ; 147 | // All GPIO's are already inputs if we are coming in after a reset     
     641                    ;----------------------------------------------------------------------
     642                    
     643                    ;*****************************************************************************
     644                    ;* FUNCTION NAME: init_button                                                *
     645                    ;*                                                                           *
     646                    ;*   Regs Modified     : A1,A2,SR                                            *
     647                    ;*   Regs Used         : A1,A2,LR,SR                                         *
     648                    ;*   Local Frame Size  : 0 Args + 0 Auto + 0 Save = 0 byte                   *
     649                    ;*****************************************************************************
     650 00000000           init_button:
     651                    ;* --------------------------------------------------------------------------*
     652                    ;* A1    assigned to $O$C1
     653                            .dwcfi  cfa_offset, 0
     654                            .dwpsn  file "../main.c",line 148,column 5,is_stmt,isa 1
     655                    ;----------------------------------------------------------------------
     656                    ; 148 | BUTTON_PORT1->OUT |= BUTTON_BIT1; // pullup                            
     657                    ;----------------------------------------------------------------------
     658 00000000 481A              LDR       A1, $C$CON5           ; [DPU_3_PIPE] |148|  ; [ORIG 16-BIT INS]
     659 00000002 3020              ADDS      A1, A1, #32           ; [DPU_3_PIPE]  ; [ORIG 16-BIT INS]
     660 00000004 1022F890          LDRB      A2, [A1, #34]         ; [DPU_3_PIPE] |148|  ; [KEEP 32-BIT INS]
TI ARM Assembler Unix v16.9.0 Sat Apr 29 13:25:12 2017

Tools Copyright (c) 1996-2015 Texas Instruments Incorporated
main.asm                                                             PAGE   13

     661 00000008 0102F041          ORR       A2, A2, #2            ; [DPU_3_PIPE] |148|  ; [KEEP 32-BIT INS]
     662 0000000c 1022F880          STRB      A2, [A1, #34]         ; [DPU_3_PIPE] |148|  ; [KEEP 32-BIT INS]
     663                            .dwpsn  file "../main.c",line 149,column 5,is_stmt,isa 1
     664                    ;----------------------------------------------------------------------
     665                    ; 149 | BUTTON_PORT1->REN |= BUTTON_BIT1; // enable resistor                   
     666                    ;----------------------------------------------------------------------
     667 00000010 1026F890          LDRB      A2, [A1, #38]         ; [DPU_3_PIPE] |149|  ; [KEEP 32-BIT INS]
     668 00000014 0102F041          ORR       A2, A2, #2            ; [DPU_3_PIPE] |149|  ; [KEEP 32-BIT INS]
     669 00000018 1026F880          STRB      A2, [A1, #38]         ; [DPU_3_PIPE] |149|  ; [KEEP 32-BIT INS]
     670                            .dwpsn  file "../main.c",line 150,column 5,is_stmt,isa 1
     671                    ;----------------------------------------------------------------------
     672                    ; 150 | BUTTON_PORT1->IES |= BUTTON_BIT1; // set for 1->0 transition           
     673                    ;----------------------------------------------------------------------
     674 0000001c 1038F890          LDRB      A2, [A1, #56]         ; [DPU_3_PIPE] |150|  ; [KEEP 32-BIT INS]
     675 00000020 0102F041          ORR       A2, A2, #2            ; [DPU_3_PIPE] |150|  ; [KEEP 32-BIT INS]
     676 00000024 1038F880          STRB      A2, [A1, #56]         ; [DPU_3_PIPE] |150|  ; [KEEP 32-BIT INS]
     677                            .dwpsn  file "../main.c",line 151,column 5,is_stmt,isa 1
     678                    ;----------------------------------------------------------------------
     679                    ; 151 | BUTTON_PORT1->IFG &= ~BUTTON_BIT1;// clear interrupt flag              
     680                    ;----------------------------------------------------------------------
     681 00000028 103CF890          LDRB      A2, [A1, #60]         ; [DPU_3_PIPE] |151|  ; [KEEP 32-BIT INS]
     682 0000002c 01FDF001          AND       A2, A2, #253          ; [DPU_3_PIPE] |151|  ; [KEEP 32-BIT INS]
     683 00000030 103CF880          STRB      A2, [A1, #60]         ; [DPU_3_PIPE] |151|  ; [KEEP 32-BIT INS]
     684                            .dwpsn  file "../main.c",line 152,column 5,is_stmt,isa 1
     685                    ;----------------------------------------------------------------------
     686                    ; 152 | BUTTON_PORT1->IE  |= BUTTON_BIT1; // enable interrupt                  
     687                    ;----------------------------------------------------------------------
     688 00000034 103AF890          LDRB      A2, [A1, #58]         ; [DPU_3_PIPE] |152|  ; [KEEP 32-BIT INS]
     689 00000038 0102F041          ORR       A2, A2, #2            ; [DPU_3_PIPE] |152|  ; [KEEP 32-BIT INS]
     690 0000003c 103AF880          STRB      A2, [A1, #58]         ; [DPU_3_PIPE] |152|  ; [KEEP 32-BIT INS]
     691                            .dwpsn  file "../main.c",line 154,column 5,is_stmt,isa 1
     692                    ;----------------------------------------------------------------------
     693                    ; 154 | BUTTON_PORT2->OUT |= BUTTON_BIT2; // pullup                            
     694                    ;----------------------------------------------------------------------
     695 00000040 7881              LDRB      A2, [A1, #2]          ; [DPU_3_PIPE] |154|  ; [ORIG 16-BIT INS]
     696 00000042 0120F041          ORR       A2, A2, #32           ; [DPU_3_PIPE] |154|  ; [KEEP 32-BIT INS]
     697 00000046 7081              STRB      A2, [A1, #2]          ; [DPU_3_PIPE] |154|  ; [ORIG 16-BIT INS]
     698                            .dwpsn  file "../main.c",line 155,column 5,is_stmt,isa 1
     699                    ;----------------------------------------------------------------------
     700                    ; 155 | BUTTON_PORT2->REN |= BUTTON_BIT2; // enable resistor                   
     701                    ;----------------------------------------------------------------------
     702 00000048 7981              LDRB      A2, [A1, #6]          ; [DPU_3_PIPE] |155|  ; [ORIG 16-BIT INS]
     703 0000004a 0120F041          ORR       A2, A2, #32           ; [DPU_3_PIPE] |155|  ; [KEEP 32-BIT INS]
     704 0000004e 7181              STRB      A2, [A1, #6]          ; [DPU_3_PIPE] |155|  ; [ORIG 16-BIT INS]
     705                            .dwpsn  file "../main.c",line 156,column 5,is_stmt,isa 1
     706                    ;----------------------------------------------------------------------
     707                    ; 156 | BUTTON_PORT2->IES |= BUTTON_BIT2; // set for 1->0 transition           
     708                    ;----------------------------------------------------------------------
     709 00000050 7E01              LDRB      A2, [A1, #24]         ; [DPU_3_PIPE] |156|  ; [ORIG 16-BIT INS]
     710 00000052 0120F041          ORR       A2, A2, #32           ; [DPU_3_PIPE] |156|  ; [KEEP 32-BIT INS]
     711 00000056 7601              STRB      A2, [A1, #24]         ; [DPU_3_PIPE] |156|  ; [ORIG 16-BIT INS]
     712                            .dwpsn  file "../main.c",line 157,column 5,is_stmt,isa 1
     713                    ;----------------------------------------------------------------------
     714                    ; 157 | BUTTON_PORT2->IFG &= ~BUTTON_BIT2;// clear interrupt flag              
     715                    ;----------------------------------------------------------------------
TI ARM Assembler Unix v16.9.0 Sat Apr 29 13:25:12 2017

Tools Copyright (c) 1996-2015 Texas Instruments Incorporated
main.asm                                                             PAGE   14

     716 00000058 7F01              LDRB      A2, [A1, #28]         ; [DPU_3_PIPE] |157|  ; [ORIG 16-BIT INS]
     717 0000005a 01DFF001          AND       A2, A2, #223          ; [DPU_3_PIPE] |157|  ; [KEEP 32-BIT INS]
     718 0000005e 7701              STRB      A2, [A1, #28]         ; [DPU_3_PIPE] |157|  ; [ORIG 16-BIT INS]
     719                            .dwpsn  file "../main.c",line 158,column 5,is_stmt,isa 1
     720                    ;----------------------------------------------------------------------
     721                    ; 158 | BUTTON_PORT2->IE  |= BUTTON_BIT2; // enable interrupt                  
     722                    ;----------------------------------------------------------------------
     723 00000060 7E81              LDRB      A2, [A1, #26]         ; [DPU_3_PIPE] |158|  ; [ORIG 16-BIT INS]
     724 00000062 0120F041          ORR       A2, A2, #32           ; [DPU_3_PIPE] |158|  ; [KEEP 32-BIT INS]
     725 00000066 7681              STRB      A2, [A1, #26]         ; [DPU_3_PIPE] |158|  ; [ORIG 16-BIT INS]
     726                    $C$DW$66        .dwtag  DW_TAG_TI_branch
     727                            .dwattr $C$DW$66, DW_AT_low_pc(0x00)
     728                            .dwattr $C$DW$66, DW_AT_TI_return
     729                    
     730 00000068 4770              BX        LR                    ; [DPU_3_PIPE]  ; [ORIG 16-BIT INS]
     731                            ; BRANCH OCCURS                  ; [] 
     732                            .dwattr $C$DW$65, DW_AT_TI_end_file("../main.c")
     733                            .dwattr $C$DW$65, DW_AT_TI_end_line(0x9f)
     734                            .dwattr $C$DW$65, DW_AT_TI_end_column(0x01)
     735                            .dwendentry
     736                            .dwendtag $C$DW$65
     737                    
     738 00000000                   .sect   ".text:init_display"
     739                            .clink
     740                            .thumbfunc init_display
     741 00000000                   .thumb
     742                            .global init_display
     743                    
     744                    $C$DW$67        .dwtag  DW_TAG_subprogram
     745                            .dwattr $C$DW$67, DW_AT_name("init_display")
     746                            .dwattr $C$DW$67, DW_AT_low_pc(init_display)
     747                            .dwattr $C$DW$67, DW_AT_high_pc(0x00)
     748                            .dwattr $C$DW$67, DW_AT_TI_symbol_name("init_display")
     749                            .dwattr $C$DW$67, DW_AT_external
     750                            .dwattr $C$DW$67, DW_AT_TI_begin_file("../main.c")
     751                            .dwattr $C$DW$67, DW_AT_TI_begin_line(0x60)
     752                            .dwattr $C$DW$67, DW_AT_TI_begin_column(0x06)
     753                            .dwattr $C$DW$67, DW_AT_decl_file("../main.c")
     754                            .dwattr $C$DW$67, DW_AT_decl_line(0x60)
     755                            .dwattr $C$DW$67, DW_AT_decl_column(0x06)
     756                            .dwattr $C$DW$67, DW_AT_TI_max_frame_size(0x08)
     757                            .dwpsn  file "../main.c",line 96,column 20,is_stmt,address init_display,isa 1
     758                    
     759                            .dwfde $C$DW$CIE, init_display
     760                    ;----------------------------------------------------------------------
     761                    ;  96 | void init_display(){                                                   
     762                    ;----------------------------------------------------------------------
     763                    
     764                    ;*****************************************************************************
     765                    ;* FUNCTION NAME: init_display                                               *
     766                    ;*                                                                           *
     767                    ;*   Regs Modified     : A1,A2,A3,A4,V1,V9,SP,LR,SR,D0,D0_hi,D1,D1_hi,D2,    *
     768                    ;*                           D2_hi,D3,D3_hi,D4,D4_hi,D5,D5_hi,D6,D6_hi,D7,   *
     769                    ;*                           D7_hi,FPEXC,FPSCR                               *
     770                    ;*   Regs Used         : A1,A2,A3,A4,V1,V9,SP,LR,SR,D0,D0_hi,D1,D1_hi,D2,    *
TI ARM Assembler Unix v16.9.0 Sat Apr 29 13:25:12 2017

Tools Copyright (c) 1996-2015 Texas Instruments Incorporated
main.asm                                                             PAGE   15

     771                    ;*                           D2_hi,D3,D3_hi,D4,D4_hi,D5,D5_hi,D6,D6_hi,D7,   *
     772                    ;*                           D7_hi,FPEXC,FPSCR                               *
     773                    ;*   Local Frame Size  : 0 Args + 0 Auto + 8 Save = 8 byte                   *
     774                    ;*****************************************************************************
     775 00000000           init_display:
     776                    ;* --------------------------------------------------------------------------*
     777                    ;* V1    assigned to $O$C1
     778                            .dwcfi  cfa_offset, 0
     779 00000000 B510              PUSH      {V1, LR}              ; [DPU_3_PIPE]  ; [ORIG 16-BIT INS]
     780                            .dwcfi  cfa_offset, 8
     781                            .dwcfi  save_reg_to_mem, 14, -4
     782                            .dwcfi  save_reg_to_mem, 4, -8
     783                            .dwpsn  file "../main.c",line 98,column 5,is_stmt,isa 1
     784                    ;----------------------------------------------------------------------
     785                    ;  98 | Crystalfontz128x128_Init();                                            
     786                    ;----------------------------------------------------------------------
     787                    $C$DW$68        .dwtag  DW_TAG_TI_branch
     788                            .dwattr $C$DW$68, DW_AT_low_pc(0x00)
     789                            .dwattr $C$DW$68, DW_AT_name("Crystalfontz128x128_Init")
     790                            .dwattr $C$DW$68, DW_AT_TI_call
     791                    
     792 00000002 FFFEF7FF!         BL        Crystalfontz128x128_Init ; [DPU_3_PIPE] |98|  ; [KEEP 32-BIT INS]
     793                            ; CALL OCCURS {Crystalfontz128x128_Init }  ; [] |98| 
     794                            .dwpsn  file "../main.c",line 101,column 5,is_stmt,isa 1
     795                    ;----------------------------------------------------------------------
     796                    ; 101 | Crystalfontz128x128_SetOrientation(LCD_ORIENTATION_UP);                
     797                    ;----------------------------------------------------------------------
     798 00000006 2000              MOVS      A1, #0                ; [DPU_3_PIPE] |101|  ; [ORIG 16-BIT INS]
     799                    $C$DW$69        .dwtag  DW_TAG_TI_branch
     800                            .dwattr $C$DW$69, DW_AT_low_pc(0x00)
     801                            .dwattr $C$DW$69, DW_AT_name("Crystalfontz128x128_SetOrientation")
     802                            .dwattr $C$DW$69, DW_AT_TI_call
     803                    
     804 00000008 FFFEF7FF!         BL        Crystalfontz128x128_SetOrientation ; [DPU_3_PIPE] |101|  ; [KEEP 32-BIT INS]
     805                            ; CALL OCCURS {Crystalfontz128x128_SetOrientation }  ; [] |101| 
     806                            .dwpsn  file "../main.c",line 104,column 5,is_stmt,isa 1
     807                    ;----------------------------------------------------------------------
     808                    ; 104 | Graphics_initContext(&g_sContext, &g_sCrystalfontz128x128,&g_sCrystalfo
     809                    ;     | ntz128x128_funcs);                                                     
     810                    ;----------------------------------------------------------------------
     811 0000000c 4C0A              LDR       V1, $C$CON6           ; [DPU_3_PIPE] |104|  ; [ORIG 16-BIT INS]
     812 0000000e 490B              LDR       A2, $C$CON7           ; [DPU_3_PIPE] |104|  ; [ORIG 16-BIT INS]
     813 00000010 4A0B              LDR       A3, $C$CON8           ; [DPU_3_PIPE] |104|  ; [ORIG 16-BIT INS]
     814 00000012 4620              MOV       A1, V1                ; [DPU_3_PIPE] |104|  ; [ORIG 16-BIT INS]
     815                    $C$DW$70        .dwtag  DW_TAG_TI_branch
     816                            .dwattr $C$DW$70, DW_AT_low_pc(0x00)
     817                            .dwattr $C$DW$70, DW_AT_name("Graphics_initContext")
     818                            .dwattr $C$DW$70, DW_AT_TI_call
     819                    
     820 00000014 FFFEF7FF!         BL        Graphics_initContext  ; [DPU_3_PIPE] |104|  ; [KEEP 32-BIT INS]
     821                            ; CALL OCCURS {Graphics_initContext }  ; [] |104| 
     822                            .dwpsn  file "../main.c",line 105,column 5,is_stmt,isa 1
     823                    ;----------------------------------------------------------------------
     824                    ; 105 | Graphics_setForegroundColor(&g_sContext, TEXTCOL);                     
     825                    ;----------------------------------------------------------------------
TI ARM Assembler Unix v16.9.0 Sat Apr 29 13:25:12 2017

Tools Copyright (c) 1996-2015 Texas Instruments Incorporated
main.asm                                                             PAGE   16

     826 00000018 490A              LDR       A2, $C$CON9           ; [DPU_3_PIPE] |105|  ; [ORIG 16-BIT INS]
     827 0000001a 4620              MOV       A1, V1                ; [DPU_3_PIPE] |105|  ; [ORIG 16-BIT INS]
     828                    $C$DW$71        .dwtag  DW_TAG_TI_branch
     829                            .dwattr $C$DW$71, DW_AT_low_pc(0x00)
     830                            .dwattr $C$DW$71, DW_AT_name("Graphics_setForegroundColor")
     831                            .dwattr $C$DW$71, DW_AT_TI_call
     832                    
     833 0000001c FFFEF7FF!         BL        Graphics_setForegroundColor ; [DPU_3_PIPE] |105|  ; [KEEP 32-BIT INS]
     834                            ; CALL OCCURS {Graphics_setForegroundColor }  ; [] |105| 
     835                            .dwpsn  file "../main.c",line 106,column 5,is_stmt,isa 1
     836                    ;----------------------------------------------------------------------
     837                    ; 106 | Graphics_setBackgroundColor(&g_sContext, BACKCOL);                     
     838                    ;----------------------------------------------------------------------
     839 00000020 2100              MOVS      A2, #0                ; [DPU_3_PIPE] |106|  ; [ORIG 16-BIT INS]
     840 00000022 4620              MOV       A1, V1                ; [DPU_3_PIPE] |106|  ; [ORIG 16-BIT INS]
     841                    $C$DW$72        .dwtag  DW_TAG_TI_branch
     842                            .dwattr $C$DW$72, DW_AT_low_pc(0x00)
     843                            .dwattr $C$DW$72, DW_AT_name("Graphics_setBackgroundColor")
     844                            .dwattr $C$DW$72, DW_AT_TI_call
     845                    
     846 00000024 FFFEF7FF!         BL        Graphics_setBackgroundColor ; [DPU_3_PIPE] |106|  ; [KEEP 32-BIT INS]
     847                            ; CALL OCCURS {Graphics_setBackgroundColor }  ; [] |106| 
     848                            .dwpsn  file "../main.c",line 107,column 5,is_stmt,isa 1
     849                    ;----------------------------------------------------------------------
     850                    ; 107 | Graphics_setFont(&g_sContext, &g_sFontFixed6x8);                       
     851                    ;----------------------------------------------------------------------
     852 00000028 4907              LDR       A2, $C$CON10          ; [DPU_3_PIPE] |107|  ; [ORIG 16-BIT INS]
     853 0000002a 4620              MOV       A1, V1                ; [DPU_3_PIPE] |107|  ; [ORIG 16-BIT INS]
     854                    $C$DW$73        .dwtag  DW_TAG_TI_branch
     855                            .dwattr $C$DW$73, DW_AT_low_pc(0x00)
     856                            .dwattr $C$DW$73, DW_AT_name("Graphics_setFont")
     857                            .dwattr $C$DW$73, DW_AT_TI_call
     858                    
     859 0000002c FFFEF7FF!         BL        Graphics_setFont      ; [DPU_3_PIPE] |107|  ; [KEEP 32-BIT INS]
     860                            ; CALL OCCURS {Graphics_setFont }  ; [] |107| 
     861                            .dwpsn  file "../main.c",line 108,column 5,is_stmt,isa 1
     862                    ;----------------------------------------------------------------------
     863                    ; 108 | Graphics_clearDisplay(&g_sContext);                                    
     864                    ;----------------------------------------------------------------------
     865 00000030 4620              MOV       A1, V1                ; [DPU_3_PIPE] |108|  ; [ORIG 16-BIT INS]
     866                    $C$DW$74        .dwtag  DW_TAG_TI_branch
     867                            .dwattr $C$DW$74, DW_AT_low_pc(0x00)
     868                            .dwattr $C$DW$74, DW_AT_name("Graphics_clearDisplay")
     869                            .dwattr $C$DW$74, DW_AT_TI_call
     870                    
     871 00000032 FFFEF7FF!         BL        Graphics_clearDisplay ; [DPU_3_PIPE] |108|  ; [KEEP 32-BIT INS]
     872                            ; CALL OCCURS {Graphics_clearDisplay }  ; [] |108| 
     873                    $C$DW$75        .dwtag  DW_TAG_TI_branch
     874                            .dwattr $C$DW$75, DW_AT_low_pc(0x00)
     875                            .dwattr $C$DW$75, DW_AT_TI_return
     876                    
     877 00000036 BD10              POP       {V1, PC}              ; [DPU_3_PIPE]  ; [ORIG 16-BIT INS]
     878                            .dwcfi  cfa_offset, 0
     879                            ; BRANCH OCCURS                  ; [] 
     880                            .dwattr $C$DW$67, DW_AT_TI_end_file("../main.c")
TI ARM Assembler Unix v16.9.0 Sat Apr 29 13:25:12 2017

Tools Copyright (c) 1996-2015 Texas Instruments Incorporated
main.asm                                                             PAGE   17

     881                            .dwattr $C$DW$67, DW_AT_TI_end_line(0x6e)
     882                            .dwattr $C$DW$67, DW_AT_TI_end_column(0x01)
     883                            .dwendentry
     884                            .dwendtag $C$DW$67
     885                    
     886 00000000                   .sect   ".text:init_WDT"
     887                            .clink
     888                            .thumbfunc init_WDT
     889 00000000                   .thumb
     890                            .global init_WDT
     891                    
     892                    $C$DW$76        .dwtag  DW_TAG_subprogram
     893                            .dwattr $C$DW$76, DW_AT_name("init_WDT")
     894                            .dwattr $C$DW$76, DW_AT_low_pc(init_WDT)
     895                            .dwattr $C$DW$76, DW_AT_high_pc(0x00)
     896                            .dwattr $C$DW$76, DW_AT_TI_symbol_name("init_WDT")
     897                            .dwattr $C$DW$76, DW_AT_external
     898                            .dwattr $C$DW$76, DW_AT_TI_begin_file("../main.c")
     899                            .dwattr $C$DW$76, DW_AT_TI_begin_line(0x5a)
     900                            .dwattr $C$DW$76, DW_AT_TI_begin_column(0x06)
     901                            .dwattr $C$DW$76, DW_AT_decl_file("../main.c")
     902                            .dwattr $C$DW$76, DW_AT_decl_line(0x5a)
     903                            .dwattr $C$DW$76, DW_AT_decl_column(0x06)
     904                            .dwattr $C$DW$76, DW_AT_TI_max_frame_size(0x08)
     905                            .dwpsn  file "../main.c",line 90,column 16,is_stmt,address init_WDT,isa 1
     906                    
     907                            .dwfde $C$DW$CIE, init_WDT
     908                    ;----------------------------------------------------------------------
     909                    ;  90 | void init_WDT(){                                                       
     910                    ;----------------------------------------------------------------------
     911                    
     912                    ;*****************************************************************************
     913                    ;* FUNCTION NAME: init_WDT                                                   *
     914                    ;*                                                                           *
     915                    ;*   Regs Modified     : A1,A2,A3,A4,V1,V9,SP,LR,SR,D0,D0_hi,D1,D1_hi,D2,    *
     916                    ;*                           D2_hi,D3,D3_hi,D4,D4_hi,D5,D5_hi,D6,D6_hi,D7,   *
     917                    ;*                           D7_hi,FPEXC,FPSCR                               *
     918                    ;*   Regs Used         : A1,A2,A3,A4,V1,V9,SP,LR,SR,D0,D0_hi,D1,D1_hi,D2,    *
     919                    ;*                           D2_hi,D3,D3_hi,D4,D4_hi,D5,D5_hi,D6,D6_hi,D7,   *
     920                    ;*                           D7_hi,FPEXC,FPSCR                               *
     921                    ;*   Local Frame Size  : 0 Args + 0 Auto + 8 Save = 8 byte                   *
     922                    ;*****************************************************************************
     923 00000000           init_WDT:
     924                    ;* --------------------------------------------------------------------------*
     925                    ;* V1    assigned to $O$C1
     926                            .dwcfi  cfa_offset, 0
     927 00000000 B510              PUSH      {V1, LR}              ; [DPU_3_PIPE]  ; [ORIG 16-BIT INS]
     928                            .dwcfi  cfa_offset, 8
     929                            .dwcfi  save_reg_to_mem, 14, -4
     930                            .dwcfi  save_reg_to_mem, 4, -8
     931                            .dwpsn  file "../main.c",line 91,column 5,is_stmt,isa 1
     932                    ;----------------------------------------------------------------------
     933                    ;  91 | MAP_WDT_A_initIntervalTimer(WDT_A_CLOCKSOURCE_SMCLK,WDT_A_CLOCKITERATIO
     934                    ;     | NS_8192K);                                                             
     935                    ;----------------------------------------------------------------------
TI ARM Assembler Unix v16.9.0 Sat Apr 29 13:25:12 2017

Tools Copyright (c) 1996-2015 Texas Instruments Incorporated
main.asm                                                             PAGE   18

     936 00000002 7400F04F          MOV       V1, #33554432         ; [DPU_3_PIPE] |91|  ; [KEEP 32-BIT INS]
     937 00000006 0864F8D4          LDR       A1, [V1, #2148]       ; [DPU_3_PIPE] |91|  ; [KEEP 32-BIT INS]
     938 0000000a 6900              LDR       A1, [A1, #16]         ; [DPU_3_PIPE] |91|  ; [ORIG 16-BIT INS]
     939 0000000c 2102              MOVS      A2, #2                ; [DPU_3_PIPE] |91|  ; [ORIG 16-BIT INS]
     940 0000000e 4602              MOV       A3, A1                ; [DPU_3_PIPE] |91|  ; [ORIG 16-BIT INS]
     941 00000010 2000              MOVS      A1, #0                ; [DPU_3_PIPE] |91|  ; [ORIG 16-BIT INS]
     942                    $C$DW$77        .dwtag  DW_TAG_TI_branch
     943                            .dwattr $C$DW$77, DW_AT_low_pc(0x00)
     944                            .dwattr $C$DW$77, DW_AT_TI_call
     945                            .dwattr $C$DW$77, DW_AT_TI_indirect
     946                    
     947 00000012 4790              BLX       A3                    ; [DPU_3_PIPE] |91|  ; [ORIG 16-BIT INS]
     948                            ; CALL OCCURS {}                 ; [] |91| 
     949                            .dwpsn  file "../main.c",line 92,column 5,is_stmt,isa 1
     950                    ;----------------------------------------------------------------------
     951                    ;  92 | MAP_WDT_A_startTimer(); // start the timer                             
     952                    ;----------------------------------------------------------------------
     953 00000014 0864F8D4          LDR       A1, [V1, #2148]       ; [DPU_3_PIPE] |92|  ; [KEEP 32-BIT INS]
     954 00000018 6840              LDR       A1, [A1, #4]          ; [DPU_3_PIPE] |92|  ; [ORIG 16-BIT INS]
     955                    $C$DW$78        .dwtag  DW_TAG_TI_branch
     956                            .dwattr $C$DW$78, DW_AT_low_pc(0x00)
     957                            .dwattr $C$DW$78, DW_AT_TI_call
     958                            .dwattr $C$DW$78, DW_AT_TI_indirect
     959                    
     960 0000001a 4780              BLX       A1                    ; [DPU_3_PIPE] |92|  ; [ORIG 16-BIT INS]
     961                            ; CALL OCCURS {}                 ; [] |92| 
     962                    $C$DW$79        .dwtag  DW_TAG_TI_branch
     963                            .dwattr $C$DW$79, DW_AT_low_pc(0x00)
     964                            .dwattr $C$DW$79, DW_AT_TI_return
     965                    
     966 0000001c BD10              POP       {V1, PC}              ; [DPU_3_PIPE]  ; [ORIG 16-BIT INS]
     967                            .dwcfi  cfa_offset, 0
     968                            ; BRANCH OCCURS                  ; [] 
     969                            .dwattr $C$DW$76, DW_AT_TI_end_file("../main.c")
     970                            .dwattr $C$DW$76, DW_AT_TI_end_line(0x5d)
     971                            .dwattr $C$DW$76, DW_AT_TI_end_column(0x01)
     972                            .dwendentry
     973                            .dwendtag $C$DW$76
     974                    
     975 00000000                   .sect   ".text:main"
     976                            .clink
     977                            .thumbfunc main
     978 00000000                   .thumb
     979                            .global main
     980                    
     981                    $C$DW$80        .dwtag  DW_TAG_subprogram
     982                            .dwattr $C$DW$80, DW_AT_name("main")
     983                            .dwattr $C$DW$80, DW_AT_low_pc(main)
     984                            .dwattr $C$DW$80, DW_AT_high_pc(0x00)
     985                            .dwattr $C$DW$80, DW_AT_TI_symbol_name("main")
     986                            .dwattr $C$DW$80, DW_AT_external
     987                            .dwattr $C$DW$80, DW_AT_TI_begin_file("../main.c")
     988                            .dwattr $C$DW$80, DW_AT_TI_begin_line(0xd0)
     989                            .dwattr $C$DW$80, DW_AT_TI_begin_column(0x06)
     990                            .dwattr $C$DW$80, DW_AT_decl_file("../main.c")
TI ARM Assembler Unix v16.9.0 Sat Apr 29 13:25:12 2017

Tools Copyright (c) 1996-2015 Texas Instruments Incorporated
main.asm                                                             PAGE   19

     991                            .dwattr $C$DW$80, DW_AT_decl_line(0xd0)
     992                            .dwattr $C$DW$80, DW_AT_decl_column(0x06)
     993                            .dwattr $C$DW$80, DW_AT_TI_max_frame_size(0x30)
     994                            .dwpsn  file "../main.c",line 208,column 12,is_stmt,address main,isa 1
     995                    
     996                            .dwfde $C$DW$CIE, main
     997                    ;----------------------------------------------------------------------
     998                    ; 208 | void main(){                                                           
     999                    ;----------------------------------------------------------------------
    1000                    
    1001                    ;*****************************************************************************
    1002                    ;* FUNCTION NAME: main                                                       *
    1003                    ;*                                                                           *
    1004                    ;*   Regs Modified     : A1,A2,A3,A4,V1,V2,V3,V4,V9,SP,LR,SR,D0,D0_hi,D1,    *
    1005                    ;*                           D1_hi,D2,D2_hi,D3,D3_hi,D4,D4_hi,D5,D5_hi,D6,   *
    1006                    ;*                           D6_hi,D7,D7_hi,FPEXC,FPSCR                      *
    1007                    ;*   Regs Used         : A1,A2,A3,A4,V1,V2,V3,V4,V9,SP,LR,SR,D0,D0_hi,D1,    *
    1008                    ;*                           D1_hi,D2,D2_hi,D3,D3_hi,D4,D4_hi,D5,D5_hi,D6,   *
    1009                    ;*                           D6_hi,D7,D7_hi,FPEXC,FPSCR                      *
    1010                    ;*   Local Frame Size  : 8 Args + 16 Auto + 20 Save = 44 byte                *
    1011                    ;*****************************************************************************
    1012                    main:
    1013                    ;* --------------------------------------------------------------------------*
    1014                    $C$DW$81        .dwtag  DW_TAG_variable
    1015                            .dwattr $C$DW$81, DW_AT_name("string_score")
    1016                            .dwattr $C$DW$81, DW_AT_TI_symbol_name("string_score")
    1017                            .dwattr $C$DW$81, DW_AT_type(*$C$DW$T$400)
    1018                            .dwattr $C$DW$81, DW_AT_location[DW_OP_breg13 8]
    1019                    
    1020                    ;* V1    assigned to $O$C1
    1021                    ;* V4    assigned to $O$K43
    1022                            .dwcfi  cfa_offset, 0
    1023 00000000 B5F0              PUSH      {V1, V2, V3, V4, LR}  ; [DPU_3_PIPE]  ; [ORIG 16-BIT INS]
    1024                            .dwcfi  cfa_offset, 20
    1025                            .dwcfi  save_reg_to_mem, 14, -4
    1026                            .dwcfi  save_reg_to_mem, 7, -8
    1027                            .dwcfi  save_reg_to_mem, 6, -12
    1028                            .dwcfi  save_reg_to_mem, 5, -16
    1029                            .dwcfi  save_reg_to_mem, 4, -20
    1030                            .dwpsn  file "../main.c",line 209,column 5,is_stmt,isa 1
    1031                    ;----------------------------------------------------------------------
    1032                    ; 209 | WDT_A->CTL = WDTPW + WDTHOLD; // Stop watchdog timer                   
    1033                    ;----------------------------------------------------------------------
    1034 00000002 4929              LDR       A2, $C$CON11          ; [DPU_3_PIPE] |209|  ; [ORIG 16-BIT INS]
    1035 00000004 4C29              LDR       V1, $C$CON12          ; [DPU_3_PIPE] |209|  ; [ORIG 16-BIT INS]
    1036 00000006 40B5F44F          MOV       A1, #23168            ; [DPU_3_PIPE] |209|  ; [KEEP 32-BIT INS]
    1037 0000000a 0D1CF1AD          SUB       SP, SP, #28           ; [DPU_3_PIPE]  ; [KEEP 32-BIT INS]
    1038                            .dwcfi  cfa_offset, 48
    1039 0000000e 5308              STRH      A1, [A2, +V1]         ; [DPU_3_PIPE] |209|  ; [ORIG 16-BIT INS]
    1040                            .dwpsn  file "../main.c",line 211,column 5,is_stmt,isa 1
    1041                    ;----------------------------------------------------------------------
    1042                    ; 211 | mapports();                                                            
    1043                    ;----------------------------------------------------------------------
    1044                    $C$DW$82        .dwtag  DW_TAG_TI_branch
    1045                            .dwattr $C$DW$82, DW_AT_low_pc(0x00)
TI ARM Assembler Unix v16.9.0 Sat Apr 29 13:25:12 2017

Tools Copyright (c) 1996-2015 Texas Instruments Incorporated
main.asm                                                             PAGE   20

    1046                            .dwattr $C$DW$82, DW_AT_name("mapports")
    1047                            .dwattr $C$DW$82, DW_AT_TI_call
    1048                    
    1049 00000010 FFFEF7FF!         BL        mapports              ; [DPU_3_PIPE] |211|  ; [KEEP 32-BIT INS]
    1050                            ; CALL OCCURS {mapports }        ; [] |211| 
    1051                            .dwpsn  file "../main.c",line 213,column 5,is_stmt,isa 1
    1052                    ;----------------------------------------------------------------------
    1053                    ; 213 | init_timer();  // initialize timer                                     
    1054                    ;----------------------------------------------------------------------
    1055                    $C$DW$83        .dwtag  DW_TAG_TI_branch
    1056                            .dwattr $C$DW$83, DW_AT_low_pc(0x00)
    1057                            .dwattr $C$DW$83, DW_AT_name("init_timer")
    1058                            .dwattr $C$DW$83, DW_AT_TI_call
    1059                    
    1060 00000014 FFFEF7FF!         BL        init_timer            ; [DPU_3_PIPE] |213|  ; [KEEP 32-BIT INS]
    1061                            ; CALL OCCURS {init_timer }      ; [] |213| 
    1062                            .dwpsn  file "../main.c",line 214,column 5,is_stmt,isa 1
    1063                    ;----------------------------------------------------------------------
    1064                    ; 214 | init_button(); // initialize the button                                
    1065                    ; 216 | // setup NVIC and Interrupts                                           
    1066                    ;----------------------------------------------------------------------
    1067                    $C$DW$84        .dwtag  DW_TAG_TI_branch
    1068                            .dwattr $C$DW$84, DW_AT_low_pc(0x00)
    1069                            .dwattr $C$DW$84, DW_AT_name("init_button")
    1070                            .dwattr $C$DW$84, DW_AT_TI_call
    1071                    
    1072 00000018 FFFEF7FF!         BL        init_button           ; [DPU_3_PIPE] |214|  ; [KEEP 32-BIT INS]
    1073                            ; CALL OCCURS {init_button }     ; [] |214| 
    1074                            .dwpsn  file "../main.c",line 217,column 5,is_stmt,isa 1
    1075                    ;----------------------------------------------------------------------
    1076                    ; 217 | SCB->SCR &= ~SCB_SCR_SLEEPONEXIT_Msk;   // Specify that after an interr
    1077                    ;     | upt, the CPU wakes up                                                  
    1078                    ;----------------------------------------------------------------------
    1079 0000001c 0C0CF8D4          LDR       A1, [V1, #3084]       ; [DPU_3_PIPE] |217|  ; [KEEP 32-BIT INS]
    1080 00000020 0002F020          BIC       A1, A1, #2            ; [DPU_3_PIPE] |217|  ; [KEEP 32-BIT INS]
    1081 00000024 0C0CF8C4          STR       A1, [V1, #3084]       ; [DPU_3_PIPE] |217|  ; [KEEP 32-BIT INS]
    1082                            .dwpsn  file "../main.c",line 219,column 5,is_stmt,isa 1
    1083                    ;----------------------------------------------------------------------
    1084                    ; 219 | __enable_interrupt();// unmask IRQ interrupts toallow the CPU to respon
    1085                    ;     | d.                                                                     
    1086                    ;----------------------------------------------------------------------
    1087 00000028 B661              CPSIE     f                     ; [DPU_3_PIPE] |219|  ; [ORIG 16-BIT INS]
    1088                            .dwpsn  file "../main.c",line 220,column 5,is_stmt,isa 1
    1089                    ;----------------------------------------------------------------------
    1090                    ; 220 | NVIC->ISER[1] = 1 << ((PORT5_IRQn) & 31); // enable P5 to send interrup
    1091                    ;     | t signals                                                              
    1092                    ;----------------------------------------------------------------------
    1093 0000002a 2080              MOVS      A1, #128              ; [DPU_3_PIPE] |220|  ; [ORIG 16-BIT INS]
    1094 0000002c 6020              STR       A1, [V1, #0]          ; [DPU_3_PIPE] |220|  ; [ORIG 16-BIT INS]
    1095                            .dwpsn  file "../main.c",line 221,column 5,is_stmt,isa 1
    1096                    ;----------------------------------------------------------------------
    1097                    ; 221 | NVIC->ISER[0] = 1 << ((TA0_0_IRQn) & 31); //enable timer to send interr
    1098                    ;     | upts signals                                                           
    1099                    ;----------------------------------------------------------------------
    1100 0000002e 7080F44F          MOV       A1, #256              ; [DPU_3_PIPE] |221|  ; [KEEP 32-BIT INS]
TI ARM Assembler Unix v16.9.0 Sat Apr 29 13:25:12 2017

Tools Copyright (c) 1996-2015 Texas Instruments Incorporated
main.asm                                                             PAGE   21

    1101 00000032 0C04F844          STR       A1, [V1, #-4]         ; [DPU_3_PIPE] |221|  ; [KEEP 32-BIT INS]
    1102                            .dwpsn  file "../main.c",line 222,column 5,is_stmt,isa 1
    1103                    ;----------------------------------------------------------------------
    1104                    ; 222 | NVIC->ISER[1] = 1 << ((PORT3_IRQn) & 31);// enable P3 to send interrupt
    1105                    ;     |  signals                                                               
    1106                    ;----------------------------------------------------------------------
    1107 00000036 2020              MOVS      A1, #32               ; [DPU_3_PIPE] |222|  ; [ORIG 16-BIT INS]
    1108 00000038 6020              STR       A1, [V1, #0]          ; [DPU_3_PIPE] |222|  ; [ORIG 16-BIT INS]
    1109                            .dwpsn  file "../main.c",line 225,column 5,is_stmt,isa 1
    1110                    ;----------------------------------------------------------------------
    1111                    ; 225 | init_display(); // setup the display                                   
    1112                    ;----------------------------------------------------------------------
    1113                    $C$DW$85        .dwtag  DW_TAG_TI_branch
    1114                            .dwattr $C$DW$85, DW_AT_low_pc(0x00)
    1115                            .dwattr $C$DW$85, DW_AT_name("init_display")
    1116                            .dwattr $C$DW$85, DW_AT_TI_call
    1117                    
    1118 0000003a FFFEF7FF!         BL        init_display          ; [DPU_3_PIPE] |225|  ; [KEEP 32-BIT INS]
    1119                            ; CALL OCCURS {init_display }    ; [] |225| 
    1120                            .dwpsn  file "../main.c",line 226,column 5,is_stmt,isa 1
    1121                    ;----------------------------------------------------------------------
    1122                    ; 226 | state = 0;                                                             
    1123                    ;----------------------------------------------------------------------
    1124 0000003e 491C              LDR       A2, $C$CON13          ; [DPU_3_PIPE] |226|  ; [ORIG 16-BIT INS]
    1125 00000040 2000              MOVS      A1, #0                ; [DPU_3_PIPE] |226|  ; [ORIG 16-BIT INS]
    1126 00000042 6008              STR       A1, [A2, #0]          ; [DPU_3_PIPE] |226|  ; [ORIG 16-BIT INS]
    1127                            .dwpsn  file "../main.c",line 228,column 5,is_stmt,isa 1
    1128                    ;----------------------------------------------------------------------
    1129                    ; 228 | init_WDT();                                                            
    1130                    ;----------------------------------------------------------------------
    1131                    $C$DW$86        .dwtag  DW_TAG_TI_branch
    1132                            .dwattr $C$DW$86, DW_AT_low_pc(0x00)
    1133                            .dwattr $C$DW$86, DW_AT_name("init_WDT")
    1134                            .dwattr $C$DW$86, DW_AT_TI_call
    1135                    
    1136 00000044 FFFEF7FF!         BL        init_WDT              ; [DPU_3_PIPE] |228|  ; [KEEP 32-BIT INS]
    1137                            ; CALL OCCURS {init_WDT }        ; [] |228| 
    1138                            .dwpsn  file "../main.c",line 229,column 5,is_stmt,isa 1
    1139                    ;----------------------------------------------------------------------
    1140                    ; 229 | MAP_Interrupt_enableInterrupt(INT_WDT_A);                              
    1141                    ;----------------------------------------------------------------------
    1142 00000048 4C1B              LDR       V1, $C$CON16          ; [DPU_3_PIPE] |229|  ; [ORIG 16-BIT INS]
    1143 0000004a 0008F1A4          SUB       A1, V1, #8            ; [DPU_3_PIPE]  ; [KEEP 32-BIT INS]
    1144 0000004e 6800              LDR       A1, [A1, #0]          ; [DPU_3_PIPE] |229|  ; [ORIG 16-BIT INS]
    1145 00000050 6980              LDR       A1, [A1, #24]         ; [DPU_3_PIPE] |229|  ; [ORIG 16-BIT INS]
    1146 00000052 4601              MOV       A2, A1                ; [DPU_3_PIPE] |229|  ; [ORIG 16-BIT INS]
    1147 00000054 2013              MOVS      A1, #19               ; [DPU_3_PIPE] |229|  ; [ORIG 16-BIT INS]
    1148                    $C$DW$87        .dwtag  DW_TAG_TI_branch
    1149                            .dwattr $C$DW$87, DW_AT_low_pc(0x00)
    1150                            .dwattr $C$DW$87, DW_AT_TI_call
    1151                            .dwattr $C$DW$87, DW_AT_TI_indirect
    1152                    
    1153 00000056 4788              BLX       A2                    ; [DPU_3_PIPE] |229|  ; [ORIG 16-BIT INS]
    1154                            ; CALL OCCURS {}                 ; [] |229| 
    1155                            .dwpsn  file "../main.c",line 230,column 5,is_stmt,isa 1
TI ARM Assembler Unix v16.9.0 Sat Apr 29 13:25:12 2017

Tools Copyright (c) 1996-2015 Texas Instruments Incorporated
main.asm                                                             PAGE   22

    1156                    ;----------------------------------------------------------------------
    1157                    ; 230 | CS_setDCOCenteredFrequency(CS_DCO_FREQUENCY_24);                       
    1158                    ; 231 | //Graphics_drawImage(&g_sContext, &color4BPP_UNCOMP, 45, 45);          
    1159                    ; 234 | while(1)                                                               
    1160                    ; 237 |     MAP_PCM_gotoLPM0();                                                
    1161                    ; 238 |     __no_operation(); //  For debugger                                 
    1162                    ; 240 |     //print_current_happiness(health);                                 
    1163                    ; 248 |     char string_score[15];                                             
    1164                    ; 249 |     //  Char string to store score info                                
    1165                    ; 250 |     sprintf(string_score, "Health: %03d", health);                     
    1166                    ;----------------------------------------------------------------------
    1167 00000058 2080F44F          MOV       A1, #262144           ; [DPU_3_PIPE] |230|  ; [KEEP 32-BIT INS]
    1168                    $C$DW$88        .dwtag  DW_TAG_TI_branch
    1169                            .dwattr $C$DW$88, DW_AT_low_pc(0x00)
    1170                            .dwattr $C$DW$88, DW_AT_name("CS_setDCOCenteredFrequency")
    1171                            .dwattr $C$DW$88, DW_AT_TI_call
    1172                    
    1173 0000005c FFFEF7FF!         BL        CS_setDCOCenteredFrequency ; [DPU_3_PIPE] |230|  ; [KEEP 32-BIT INS]
    1174                            ; CALL OCCURS {CS_setDCOCenteredFrequency }  ; [] |230| 
    1175                            .dwpsn  file "../main.c",line 251,column 10,is_stmt,isa 1
    1176                    ;----------------------------------------------------------------------
    1177                    ; 251 | Graphics_drawString(&g_sContext,(int8_t *)string_score,AUTO_STRING_LENG
    1178                    ;     | TH,20,116,OPAQUE_TEXT);                                                
    1179                    ;----------------------------------------------------------------------
    1180 00000060 2674              MOVS      V3, #116              ; [DPU_3_PIPE] |251|  ; [ORIG 16-BIT INS]
    1181 00000062 2501              MOVS      V2, #1                ; [DPU_3_PIPE] |251|  ; [ORIG 16-BIT INS]
    1182 00000064 4F13              LDR       V4, $C$CON15          ; [DPU_3_PIPE]  ; [ORIG 16-BIT INS]
    1183                    ;* --------------------------------------------------------------------------*
    1184                    ;*   BEGIN LOOP ||$C$L1||
    1185                    ;*
    1186                    ;*   Loop source line                : 234
    1187                    ;*   Loop closing brace source line  : 257
    1188                    ;*   Known Minimum Trip Count        : 1
    1189                    ;*   Known Maximum Trip Count        : 4294967295
    1190                    ;*   Known Max Trip Count Factor     : 1
    1191                    ;* --------------------------------------------------------------------------*
    1192 00000066           ||$C$L1||:    
    1193                            .dwpsn  file "../main.c",line 237,column 9,is_stmt,isa 1
    1194 00000066 6820              LDR       A1, [V1, #0]          ; [DPU_3_PIPE] |237|  ; [ORIG 16-BIT INS]
    1195 00000068 6A80              LDR       A1, [A1, #40]         ; [DPU_3_PIPE] |237|  ; [ORIG 16-BIT INS]
    1196                    $C$DW$89        .dwtag  DW_TAG_TI_branch
    1197                            .dwattr $C$DW$89, DW_AT_low_pc(0x00)
    1198                            .dwattr $C$DW$89, DW_AT_TI_call
    1199                            .dwattr $C$DW$89, DW_AT_TI_indirect
    1200                    
    1201 0000006a 4780              BLX       A1                    ; [DPU_3_PIPE] |237|  ; [ORIG 16-BIT INS]
    1202                            ; CALL OCCURS {}                 ; [] |237| 
    1203 0000006c BF00        nop ; [ORIG 16-BIT INS]
    1204                            .dwpsn  file "../main.c",line 250,column 9,is_stmt,isa 1
    1205 0000006e 683A              LDR       A3, [V4, #0]          ; [DPU_3_PIPE] |250|  ; [ORIG 16-BIT INS]
    1206 00000070 A802              ADD       A1, SP, #8            ; [DPU_3_PIPE] |250|  ; [ORIG 16-BIT INS]
    1207 00000072 A109              ADR       A2, $C$SL1            ; [DPU_3_PIPE] |250|  ; [ORIG 16-BIT INS]
    1208                    $C$DW$90        .dwtag  DW_TAG_TI_branch
    1209                            .dwattr $C$DW$90, DW_AT_low_pc(0x00)
    1210                            .dwattr $C$DW$90, DW_AT_name("sprintf")
TI ARM Assembler Unix v16.9.0 Sat Apr 29 13:25:12 2017

Tools Copyright (c) 1996-2015 Texas Instruments Incorporated
main.asm                                                             PAGE   23

    1211                            .dwattr $C$DW$90, DW_AT_TI_call
    1212                    
    1213 00000074 FFFEF7FF!         BL        sprintf               ; [DPU_3_PIPE] |250|  ; [KEEP 32-BIT INS]
    1214                            ; CALL OCCURS {sprintf }         ; [] |250| 
    1215                            .dwpsn  file "../main.c",line 251,column 10,is_stmt,isa 1
    1216 00000078 9600              STR       V3, [SP, #0]          ; [DPU_3_PIPE] |251|  ; [ORIG 16-BIT INS]
    1217 0000007a A902              ADD       A2, SP, #8            ; [DPU_3_PIPE] |251|  ; [ORIG 16-BIT INS]
    1218 0000007c 32FFF04F          MOV       A3, #-1               ; [DPU_3_PIPE] |251|  ; [KEEP 32-BIT INS]
    1219 00000080 2314              MOVS      A4, #20               ; [DPU_3_PIPE] |251|  ; [ORIG 16-BIT INS]
    1220 00000082 480E              LDR       A1, $C$CON18          ; [DPU_3_PIPE] |251|  ; [ORIG 16-BIT INS]
    1221 00000084 9501              STR       V2, [SP, #4]          ; [DPU_3_PIPE] |251|  ; [ORIG 16-BIT INS]
    1222                    $C$DW$91        .dwtag  DW_TAG_TI_branch
    1223                            .dwattr $C$DW$91, DW_AT_low_pc(0x00)
    1224                            .dwattr $C$DW$91, DW_AT_name("Graphics_drawString")
    1225                            .dwattr $C$DW$91, DW_AT_TI_call
    1226                    
    1227 00000086 FFFEF7FF!         BL        Graphics_drawString   ; [DPU_3_PIPE] |251|  ; [KEEP 32-BIT INS]
    1228                            ; CALL OCCURS {Graphics_drawString }  ; [] |251| 
    1229                            .dwpsn  file "../main.c",line 253,column 10,is_stmt,isa 1
    1230                    ;----------------------------------------------------------------------
    1231                    ; 253 | if(health != 0)                                                        
    1232                    ;----------------------------------------------------------------------
    1233 0000008a 6838              LDR       A1, [V4, #0]          ; [DPU_3_PIPE] |253|  ; [ORIG 16-BIT INS]
    1234 0000008c 2800              CMP       A1, #0                ; [DPU_3_PIPE] |253|  ; [ORIG 16-BIT INS]
    1235 0000008e D0EA              BEQ       ||$C$L1||             ; [DPU_3_PIPE] |253|  ; [ORIG 16-BIT INS]
    1236                            ; BRANCHCC OCCURS {||$C$L1||}    ; [] |253| 
    1237                    ;* --------------------------------------------------------------------------*
    1238                            .dwpsn  file "../main.c",line 255,column 10,is_stmt,isa 1
    1239                    ;----------------------------------------------------------------------
    1240                    ; 255 | health--;                                                              
    1241                    ;----------------------------------------------------------------------
    1242 00000090 6838              LDR       A1, [V4, #0]          ; [DPU_3_PIPE] |255|  ; [ORIG 16-BIT INS]
    1243 00000092 1E40              SUBS      A1, A1, #1            ; [DPU_3_PIPE] |255|  ; [ORIG 16-BIT INS]
    1244 00000094 6038              STR       A1, [V4, #0]          ; [DPU_3_PIPE] |255|  ; [ORIG 16-BIT INS]
    1245 00000096 E7E6              B         ||$C$L1||             ; [DPU_3_PIPE] |255|  ; [ORIG 16-BIT INS]
    1246                            ; BRANCH OCCURS {||$C$L1||}      ; [] |255| 
    1247                    ;* --------------------------------------------------------------------------*
    1248                            .dwattr $C$DW$80, DW_AT_TI_end_file("../main.c")
    1249                            .dwattr $C$DW$80, DW_AT_TI_end_line(0x103)
    1250                            .dwattr $C$DW$80, DW_AT_TI_end_column(0x01)
    1251                            .dwendentry
    1252                            .dwendtag $C$DW$80
    1253                    
    1254 00000000                   .sect   ".text:WDT_A_IRQHandler"
    1255                            .clink
    1256                            .thumbfunc WDT_A_IRQHandler
    1257 00000000                   .thumb
    1258                            .global WDT_A_IRQHandler
    1259                    
    1260                    $C$DW$92        .dwtag  DW_TAG_subprogram
    1261                            .dwattr $C$DW$92, DW_AT_name("WDT_A_IRQHandler")
    1262                            .dwattr $C$DW$92, DW_AT_low_pc(WDT_A_IRQHandler)
    1263                            .dwattr $C$DW$92, DW_AT_high_pc(0x00)
    1264                            .dwattr $C$DW$92, DW_AT_TI_symbol_name("WDT_A_IRQHandler")
    1265                            .dwattr $C$DW$92, DW_AT_external
TI ARM Assembler Unix v16.9.0 Sat Apr 29 13:25:12 2017

Tools Copyright (c) 1996-2015 Texas Instruments Incorporated
main.asm                                                             PAGE   24

    1266                            .dwattr $C$DW$92, DW_AT_TI_begin_file("../main.c")
    1267                            .dwattr $C$DW$92, DW_AT_TI_begin_line(0x26)
    1268                            .dwattr $C$DW$92, DW_AT_TI_begin_column(0x06)
    1269                            .dwattr $C$DW$92, DW_AT_decl_file("../main.c")
    1270                            .dwattr $C$DW$92, DW_AT_decl_line(0x26)
    1271                            .dwattr $C$DW$92, DW_AT_decl_column(0x06)
    1272                            .dwattr $C$DW$92, DW_AT_TI_max_frame_size(0x08)
    1273                            .dwpsn  file "../main.c",line 39,column 1,is_stmt,address WDT_A_IRQHandler,isa 1
    1274                    
    1275                            .dwfde $C$DW$CIE, WDT_A_IRQHandler
    1276                    ;----------------------------------------------------------------------
    1277                    ;  38 | void WDT_A_IRQHandler(void)                                            
    1278                    ;----------------------------------------------------------------------
    1279                    
    1280                    ;*****************************************************************************
    1281                    ;* FUNCTION NAME: WDT_A_IRQHandler                                           *
    1282                    ;*                                                                           *
    1283                    ;*   Regs Modified     : A1,A2,A3,A4,V1,V9,SP,LR,SR,D0,D0_hi,D1,D1_hi,D2,    *
    1284                    ;*                           D2_hi,D3,D3_hi,D4,D4_hi,D5,D5_hi,D6,D6_hi,D7,   *
    1285                    ;*                           D7_hi,FPEXC,FPSCR                               *
    1286                    ;*   Regs Used         : A1,A2,A3,A4,V1,V9,SP,LR,SR,D0,D0_hi,D1,D1_hi,D2,    *
    1287                    ;*                           D2_hi,D3,D3_hi,D4,D4_hi,D5,D5_hi,D6,D6_hi,D7,   *
    1288                    ;*                           D7_hi,FPEXC,FPSCR                               *
    1289                    ;*   Local Frame Size  : 0 Args + 0 Auto + 8 Save = 8 byte                   *
    1290                    ;*****************************************************************************
    1291 00000000           WDT_A_IRQHandler:
    1292                    ;* --------------------------------------------------------------------------*
    1293                    ;* V1    assigned to $O$C1
    1294                    ;* V1    assigned to $O$C2
    1295                    ;* V1    assigned to $O$C3
    1296                    ;* A2    assigned to $O$K9
    1297                    ;* A4    assigned to $O$K2
    1298                            .dwcfi  cfa_offset, 0
    1299 00000000 B510              PUSH      {V1, LR}              ; [DPU_3_PIPE]  ; [ORIG 16-BIT INS]
    1300                            .dwcfi  cfa_offset, 8
    1301                            .dwcfi  save_reg_to_mem, 14, -4
    1302                            .dwcfi  save_reg_to_mem, 4, -8
    1303                            .dwpsn  file "../main.c",line 42,column 5,is_stmt,isa 1
    1304                    ;----------------------------------------------------------------------
    1305                    ;  42 | if (BUTTON_PORT1->IFG & BUTTON_BIT1)//switch                           
    1306                    ;  43 |                { // check that it is the button interrupt flag         
    1307                    ;  44 |                    BUTTON_PORT1->IFG &= ~BUTTON_BIT1; // clear the flag
    1308                    ;     |  to allow for another interrupt later.                                 
    1309                    ;  46 |                    switch (state) //5 seconddd (while loop)            
    1310                    ;  48 |                                       case 1:                          
    1311                    ;  50 |                                           //display eat                
    1312                    ;  51 |                                           Graphics_drawImage(&g_sContex
    1313                    ;     | t, &eat14BPP_UNCOMP, 45, 45);                                          
    1314                    ;  52 |                                           health = health + 15;        
    1315                    ;  53 |                                           break;                       
    1316                    ;  55 |                                       case 2:                          
    1317                    ;  57 |                                          //display play                
    1318                    ;  58 |                                           Graphics_drawImage(&g_sContex
    1319                    ;     | t, &play14BPP_UNCOMP, 45, 45);                                         
    1320                    ;  59 |                                           health = health - 5;         
TI ARM Assembler Unix v16.9.0 Sat Apr 29 13:25:12 2017

Tools Copyright (c) 1996-2015 Texas Instruments Incorporated
main.asm                                                             PAGE   25

    1321                    ;  60 |                                           break;                       
    1322                    ;  63 |                                       case 0:                          
    1323                    ;  65 |                                           //display walk               
    1324                    ;----------------------------------------------------------------------
    1325 00000002 4B1C              LDR       A4, $C$CON19          ; [DPU_3_PIPE] |42|  ; [ORIG 16-BIT INS]
    1326                            .dwpsn  file "../main.c",line 66,column 47,is_stmt,isa 1
    1327                    ;----------------------------------------------------------------------
    1328                    ;  66 | Graphics_drawImage(&g_sContext, &walk14BPP_UNCOMP, 45, 45);            
    1329                    ;  67 | break;                                                                 
    1330                    ;----------------------------------------------------------------------
    1331 00000004 481D              LDR       A1, $C$CON21          ; [DPU_3_PIPE] |66|  ; [ORIG 16-BIT INS]
    1332                            .dwpsn  file "../main.c",line 52,column 47,is_stmt,isa 1
    1333 00000006 4C1C              LDR       V1, $C$CON20          ; [DPU_3_PIPE] |52|  ; [ORIG 16-BIT INS]
    1334                            .dwpsn  file "../main.c",line 42,column 5,is_stmt,isa 1
    1335 00000008 7F19              LDRB      A2, [A4, #28]         ; [DPU_3_PIPE] |42|  ; [ORIG 16-BIT INS]
    1336 0000000a 0889              LSRS      A2, A2, #2            ; [DPU_3_PIPE] |42|  ; [ORIG 16-BIT INS]
    1337 0000000c D20F              BCS       ||$C$L4||             ; [DPU_3_PIPE] |42|  ; [ORIG 16-BIT INS]
    1338                            ; BRANCHCC OCCURS {||$C$L4||}    ; [] |42| 
    1339                    ;* --------------------------------------------------------------------------*
    1340                            .dwpsn  file "../main.c",line 72,column 22,is_stmt,isa 1
    1341                    ;----------------------------------------------------------------------
    1342                    ;  72 | else if( health > 80)                                                  
    1343                    ;  74 |     //display happy                                                    
    1344                    ;  75 |     //Display_happy();                                                 
    1345                    ;  76 |     Graphics_drawImage(&g_sContext, &happy14BPP_UNCOMP, 45, 45);       
    1346                    ;----------------------------------------------------------------------
    1347 0000000e 6821              LDR       A2, [V1, #0]          ; [DPU_3_PIPE] |72|  ; [ORIG 16-BIT INS]
    1348 00000010 2950              CMP       A2, #80               ; [DPU_3_PIPE] |72|  ; [ORIG 16-BIT INS]
    1349 00000012 DC0A              BGT       ||$C$L3||             ; [DPU_3_PIPE] |72|  ; [ORIG 16-BIT INS]
    1350                            ; BRANCHCC OCCURS {||$C$L3||}    ; [] |72| 
    1351                    ;* --------------------------------------------------------------------------*
    1352                            .dwpsn  file "../main.c",line 78,column 22,is_stmt,isa 1
    1353                    ;----------------------------------------------------------------------
    1354                    ;  78 | else if( (health > 40) && (health < 80))                               
    1355                    ;  80 |     //display normal                                                   
    1356                    ;----------------------------------------------------------------------
    1357 00000014 4621              MOV       A2, V1                ; [DPU_3_PIPE] |78|  ; [ORIG 16-BIT INS]
    1358 00000016 680A              LDR       A3, [A2, #0]          ; [DPU_3_PIPE] |78|  ; [ORIG 16-BIT INS]
    1359 00000018 2A28              CMP       A3, #40               ; [DPU_3_PIPE] |78|  ; [ORIG 16-BIT INS]
    1360 0000001a DD04              BLE       ||$C$L2||             ; [DPU_3_PIPE] |78|  ; [ORIG 16-BIT INS]
    1361                            ; BRANCHCC OCCURS {||$C$L2||}    ; [] |78| 
    1362                    ;* --------------------------------------------------------------------------*
    1363 0000001c 6809              LDR       A2, [A2, #0]          ; [DPU_3_PIPE] |78|  ; [ORIG 16-BIT INS]
    1364 0000001e 2950              CMP       A2, #80               ; [DPU_3_PIPE] |78|  ; [ORIG 16-BIT INS]
    1365 00000020 BFB8              IT        LT                    ; [DPU_3_PIPE]  ; [ORIG 16-BIT INS]
    1366                            .dwpsn  file "../main.c",line 81,column 21,is_stmt,isa 1
    1367                    ;----------------------------------------------------------------------
    1368                    ;  81 | Graphics_drawImage(&g_sContext, &normal14BPP_UNCOMP, 45, 45);          
    1369                    ;----------------------------------------------------------------------
    1370 00000022 4917              LDRLT     A2, $C$CON22          ; [DPU_3_PIPE] |81|  ; [ORIG 16-BIT INS]
    1371                            .dwpsn  file "../main.c",line 82,column 17,is_stmt,isa 1
    1372                    ;----------------------------------------------------------------------
    1373                    ;  83 | else                                                                   
    1374                    ;  85 |     //display unhappy                                                  
    1375                    ;----------------------------------------------------------------------
TI ARM Assembler Unix v16.9.0 Sat Apr 29 13:25:12 2017

Tools Copyright (c) 1996-2015 Texas Instruments Incorporated
main.asm                                                             PAGE   26

    1376 00000024 DB20              BLT       ||$C$L8||             ; [DPU_3_PIPE] |82|  ; [ORIG 16-BIT INS]
    1377                            ; BRANCHCC OCCURS {||$C$L8||}    ; [] |82| 
    1378                    ;* --------------------------------------------------------------------------*
    1379 00000026           ||$C$L2||:    
    1380                            .dwpsn  file "../main.c",line 86,column 21,is_stmt,isa 1
    1381                    ;----------------------------------------------------------------------
    1382                    ;  86 | Graphics_drawImage(&g_sContext, &unhappy14BPP_UNCOMP, 45, 45);         
    1383                    ;----------------------------------------------------------------------
    1384 00000026 4917              LDR       A2, $C$CON23          ; [DPU_3_PIPE] |86|  ; [ORIG 16-BIT INS]
    1385 00000028 E01E              B         ||$C$L8||             ; [DPU_3_PIPE] |86|  ; [ORIG 16-BIT INS]
    1386                            ; BRANCH OCCURS {||$C$L8||}      ; [] |86| 
    1387                    ;* --------------------------------------------------------------------------*
    1388 0000002a           ||$C$L3||:    
    1389                            .dwpsn  file "../main.c",line 76,column 21,is_stmt,isa 1
    1390 0000002a 4917              LDR       A2, $C$CON24          ; [DPU_3_PIPE] |76|  ; [ORIG 16-BIT INS]
    1391                            .dwpsn  file "../main.c",line 77,column 17,is_stmt,isa 1
    1392 0000002c E01C              B         ||$C$L8||             ; [DPU_3_PIPE] |77|  ; [ORIG 16-BIT INS]
    1393                            ; BRANCH OCCURS {||$C$L8||}      ; [] |77| 
    1394                    ;* --------------------------------------------------------------------------*
    1395 0000002e           ||$C$L4||:    
    1396                            .dwpsn  file "../main.c",line 44,column 24,is_stmt,isa 1
    1397 0000002e 7F19              LDRB      A2, [A4, #28]         ; [DPU_3_PIPE] |44|  ; [ORIG 16-BIT INS]
    1398                            .dwpsn  file "../main.c",line 46,column 24,is_stmt,isa 1
    1399 00000030 4A19              LDR       A3, $C$CON29          ; [DPU_3_PIPE] |46|  ; [ORIG 16-BIT INS]
    1400                            .dwpsn  file "../main.c",line 44,column 24,is_stmt,isa 1
    1401 00000032 01FDF001          AND       A2, A2, #253          ; [DPU_3_PIPE] |44|  ; [KEEP 32-BIT INS]
    1402 00000036 7719              STRB      A2, [A4, #28]         ; [DPU_3_PIPE] |44|  ; [ORIG 16-BIT INS]
    1403                            .dwpsn  file "../main.c",line 46,column 24,is_stmt,isa 1
    1404 00000038 6811              LDR       A2, [A3, #0]          ; [DPU_3_PIPE] |46|  ; [ORIG 16-BIT INS]
    1405 0000003a B1A1              CBZ       A2, ||$C$L7||         ; []  ; [ORIG 16-BIT INS]
    1406                            ; BRANCHCC OCCURS {||$C$L7||}    ; [] |46| 
    1407                    ;* --------------------------------------------------------------------------*
    1408 0000003c 1E49              SUBS      A2, A2, #1            ; [DPU_3_PIPE] |46|  ; [ORIG 16-BIT INS]
    1409 0000003e D009              BEQ       ||$C$L5||             ; [DPU_3_PIPE] |46|  ; [ORIG 16-BIT INS]
    1410                            ; BRANCHCC OCCURS {||$C$L5||}    ; [] |46| 
    1411                    ;* --------------------------------------------------------------------------*
    1412 00000040 1E49              SUBS      A2, A2, #1            ; [DPU_3_PIPE] |46|  ; [ORIG 16-BIT INS]
    1413 00000042 D115              BNE       ||$C$L9||             ; [DPU_3_PIPE] |46|  ; [ORIG 16-BIT INS]
    1414                            ; BRANCHCC OCCURS {||$C$L9||}    ; [] |46| 
    1415                    ;* --------------------------------------------------------------------------*
    1416                            .dwpsn  file "../main.c",line 58,column 47,is_stmt,isa 1
    1417 00000044 4911              LDR       A2, $C$CON26          ; [DPU_3_PIPE] |58|  ; [ORIG 16-BIT INS]
    1418 00000046 222D              MOVS      A3, #45               ; [DPU_3_PIPE] |58|  ; [ORIG 16-BIT INS]
    1419 00000048 4613              MOV       A4, A3                ; [DPU_3_PIPE] |58|  ; [ORIG 16-BIT INS]
    1420                    $C$DW$93        .dwtag  DW_TAG_TI_branch
    1421                            .dwattr $C$DW$93, DW_AT_low_pc(0x00)
    1422                            .dwattr $C$DW$93, DW_AT_name("Graphics_drawImage")
    1423                            .dwattr $C$DW$93, DW_AT_TI_call
    1424                    
    1425 0000004a FFFEF7FF!         BL        Graphics_drawImage    ; [DPU_3_PIPE] |58|  ; [KEEP 32-BIT INS]
    1426                            ; CALL OCCURS {Graphics_drawImage }  ; [] |58| 
    1427                            .dwpsn  file "../main.c",line 59,column 47,is_stmt,isa 1
    1428 0000004e 6820              LDR       A1, [V1, #0]          ; [DPU_3_PIPE] |59|  ; [ORIG 16-BIT INS]
    1429 00000050 1F40              SUBS      A1, A1, #5            ; [DPU_3_PIPE] |59|  ; [ORIG 16-BIT INS]
    1430                            .dwpsn  file "../main.c",line 60,column 47,is_stmt,isa 1
TI ARM Assembler Unix v16.9.0 Sat Apr 29 13:25:12 2017

Tools Copyright (c) 1996-2015 Texas Instruments Incorporated
main.asm                                                             PAGE   27

    1431 00000052 E006              B         ||$C$L6||             ; [DPU_3_PIPE] |60|  ; [ORIG 16-BIT INS]
    1432                            ; BRANCH OCCURS {||$C$L6||}      ; [] |60| 
    1433                    ;* --------------------------------------------------------------------------*
    1434 00000054           ||$C$L5||:    
    1435                            .dwcfi  remember_state
    1436                            .dwpsn  file "../main.c",line 51,column 47,is_stmt,isa 1
    1437 00000054 490E              LDR       A2, $C$CON27          ; [DPU_3_PIPE] |51|  ; [ORIG 16-BIT INS]
    1438 00000056 222D              MOVS      A3, #45               ; [DPU_3_PIPE] |51|  ; [ORIG 16-BIT INS]
    1439 00000058 4613              MOV       A4, A3                ; [DPU_3_PIPE] |51|  ; [ORIG 16-BIT INS]
    1440                    $C$DW$94        .dwtag  DW_TAG_TI_branch
    1441                            .dwattr $C$DW$94, DW_AT_low_pc(0x00)
    1442                            .dwattr $C$DW$94, DW_AT_name("Graphics_drawImage")
    1443                            .dwattr $C$DW$94, DW_AT_TI_call
    1444                    
    1445 0000005a FFFEF7FF!         BL        Graphics_drawImage    ; [DPU_3_PIPE] |51|  ; [KEEP 32-BIT INS]
    1446                            ; CALL OCCURS {Graphics_drawImage }  ; [] |51| 
    1447                            .dwpsn  file "../main.c",line 52,column 47,is_stmt,isa 1
    1448 0000005e 6820              LDR       A1, [V1, #0]          ; [DPU_3_PIPE] |52|  ; [ORIG 16-BIT INS]
    1449 00000060 300F              ADDS      A1, A1, #15           ; [DPU_3_PIPE] |52|  ; [ORIG 16-BIT INS]
    1450                    ;* --------------------------------------------------------------------------*
    1451 00000062           ||$C$L6||:    
    1452 00000062 6020              STR       A1, [V1, #0]          ; [DPU_3_PIPE] |52|  ; [ORIG 16-BIT INS]
    1453                    $C$DW$95        .dwtag  DW_TAG_TI_branch
    1454                            .dwattr $C$DW$95, DW_AT_low_pc(0x00)
    1455                            .dwattr $C$DW$95, DW_AT_TI_return
    1456                    
    1457 00000064 BD10              POP       {V1, PC}              ; [DPU_3_PIPE]  ; [ORIG 16-BIT INS]
    1458                            .dwcfi  cfa_offset, 0
    1459                            ; BRANCH OCCURS                  ; [] 
    1460                            .dwcfi  restore_reg, 4
    1461                            .dwcfi  restore_state
    1462                    ;* --------------------------------------------------------------------------*
    1463 00000066           ||$C$L7||:    
    1464                            .dwpsn  file "../main.c",line 66,column 47,is_stmt,isa 1
    1465 00000066 490B              LDR       A2, $C$CON28          ; [DPU_3_PIPE] |66|  ; [ORIG 16-BIT INS]
    1466                    ;* --------------------------------------------------------------------------*
    1467 00000068           ||$C$L8||:    
    1468 00000068 222D              MOVS      A3, #45               ; [DPU_3_PIPE] |66|  ; [ORIG 16-BIT INS]
    1469 0000006a 4613              MOV       A4, A3                ; [DPU_3_PIPE] |66|  ; [ORIG 16-BIT INS]
    1470                    $C$DW$96        .dwtag  DW_TAG_TI_branch
    1471                            .dwattr $C$DW$96, DW_AT_low_pc(0x00)
    1472                            .dwattr $C$DW$96, DW_AT_name("Graphics_drawImage")
    1473                            .dwattr $C$DW$96, DW_AT_TI_call
    1474                    
    1475 0000006c FFFEF7FF!         BL        Graphics_drawImage    ; [DPU_3_PIPE] |66|  ; [KEEP 32-BIT INS]
    1476                            ; CALL OCCURS {Graphics_drawImage }  ; [] |66| 
    1477                    ;* --------------------------------------------------------------------------*
    1478                    ||$C$L9||:    
    1479                    $C$DW$97        .dwtag  DW_TAG_TI_branch
    1480                            .dwattr $C$DW$97, DW_AT_low_pc(0x00)
    1481                            .dwattr $C$DW$97, DW_AT_TI_return
    1482                    
    1483 00000070 BD10              POP       {V1, PC}              ; [DPU_3_PIPE]  ; [ORIG 16-BIT INS]
    1484                            .dwcfi  cfa_offset, 0
    1485                            ; BRANCH OCCURS                  ; [] 
TI ARM Assembler Unix v16.9.0 Sat Apr 29 13:25:12 2017

Tools Copyright (c) 1996-2015 Texas Instruments Incorporated
main.asm                                                             PAGE   28

    1486                            .dwattr $C$DW$92, DW_AT_TI_end_file("../main.c")
    1487                            .dwattr $C$DW$92, DW_AT_TI_end_line(0x58)
    1488                            .dwattr $C$DW$92, DW_AT_TI_end_column(0x01)
    1489                            .dwendentry
    1490                            .dwendtag $C$DW$92
    1491                    
    1492 00000000                   .sect   ".text:TA0_0_IRQHandler"
    1493                            .clink
    1494                            .thumbfunc TA0_0_IRQHandler
    1495 00000000                   .thumb
    1496                            .global TA0_0_IRQHandler
    1497                    
    1498                    $C$DW$98        .dwtag  DW_TAG_subprogram
    1499                            .dwattr $C$DW$98, DW_AT_name("TA0_0_IRQHandler")
    1500                            .dwattr $C$DW$98, DW_AT_low_pc(TA0_0_IRQHandler)
    1501                            .dwattr $C$DW$98, DW_AT_high_pc(0x00)
    1502                            .dwattr $C$DW$98, DW_AT_TI_symbol_name("TA0_0_IRQHandler")
    1503                            .dwattr $C$DW$98, DW_AT_external
    1504                            .dwattr $C$DW$98, DW_AT_TI_begin_file("../main.c")
    1505                            .dwattr $C$DW$98, DW_AT_TI_begin_line(0x8b)
    1506                            .dwattr $C$DW$98, DW_AT_TI_begin_column(0x06)
    1507                            .dwattr $C$DW$98, DW_AT_decl_file("../main.c")
    1508                            .dwattr $C$DW$98, DW_AT_decl_line(0x8b)
    1509                            .dwattr $C$DW$98, DW_AT_decl_column(0x06)
    1510                            .dwattr $C$DW$98, DW_AT_TI_max_frame_size(0x00)
    1511                            .dwpsn  file "../main.c",line 140,column 1,is_stmt,address TA0_0_IRQHandler,isa 1
    1512                    
    1513                            .dwfde $C$DW$CIE, TA0_0_IRQHandler
    1514                    ;----------------------------------------------------------------------
    1515                    ; 139 | void TA0_0_IRQHandler() //like our watchdog timer                      
    1516                    ; 141 | //TIMER_A0->CCTL[0] &= ~TIMER_A_CCTLN_CCIFG; //access the buzzer       
    1517                    ;----------------------------------------------------------------------
    1518                    
    1519                    ;*****************************************************************************
    1520                    ;* FUNCTION NAME: TA0_0_IRQHandler                                           *
    1521                    ;*                                                                           *
    1522                    ;*   Regs Modified     :                                                     *
    1523                    ;*   Regs Used         : LR                                                  *
    1524                    ;*   Local Frame Size  : 0 Args + 0 Auto + 0 Save = 0 byte                   *
    1525                    ;*****************************************************************************
    1526 00000000           TA0_0_IRQHandler:
    1527                    ;* --------------------------------------------------------------------------*
    1528                            .dwcfi  cfa_offset, 0
    1529                    $C$DW$99        .dwtag  DW_TAG_TI_branch
    1530                            .dwattr $C$DW$99, DW_AT_low_pc(0x00)
    1531                            .dwattr $C$DW$99, DW_AT_TI_return
    1532                    
    1533 00000000 4770              BX        LR                    ; [DPU_3_PIPE]  ; [ORIG 16-BIT INS]
    1534                            ; BRANCH OCCURS                  ; [] 
    1535                            .dwattr $C$DW$98, DW_AT_TI_end_file("../main.c")
    1536                            .dwattr $C$DW$98, DW_AT_TI_end_line(0x90)
    1537                            .dwattr $C$DW$98, DW_AT_TI_end_column(0x01)
    1538                            .dwendentry
    1539                            .dwendtag $C$DW$98
    1540                    
TI ARM Assembler Unix v16.9.0 Sat Apr 29 13:25:12 2017

Tools Copyright (c) 1996-2015 Texas Instruments Incorporated
main.asm                                                             PAGE   29

    1541 00000000                   .sect   ".text:PORT5_IRQHandler"
    1542                            .clink
    1543                            .thumbfunc PORT5_IRQHandler
    1544 00000000                   .thumb
    1545                            .global PORT5_IRQHandler
    1546                    
    1547                    $C$DW$100       .dwtag  DW_TAG_subprogram
    1548                            .dwattr $C$DW$100, DW_AT_name("PORT5_IRQHandler")
    1549                            .dwattr $C$DW$100, DW_AT_low_pc(PORT5_IRQHandler)
    1550                            .dwattr $C$DW$100, DW_AT_high_pc(0x00)
    1551                            .dwattr $C$DW$100, DW_AT_TI_symbol_name("PORT5_IRQHandler")
    1552                            .dwattr $C$DW$100, DW_AT_external
    1553                            .dwattr $C$DW$100, DW_AT_TI_begin_file("../main.c")
    1554                            .dwattr $C$DW$100, DW_AT_TI_begin_line(0xa1)
    1555                            .dwattr $C$DW$100, DW_AT_TI_begin_column(0x06)
    1556                            .dwattr $C$DW$100, DW_AT_decl_file("../main.c")
    1557                            .dwattr $C$DW$100, DW_AT_decl_line(0xa1)
    1558                            .dwattr $C$DW$100, DW_AT_decl_column(0x06)
    1559                            .dwattr $C$DW$100, DW_AT_TI_max_frame_size(0x00)
    1560                            .dwpsn  file "../main.c",line 162,column 1,is_stmt,address PORT5_IRQHandler,isa 1
    1561                    
    1562                            .dwfde $C$DW$CIE, PORT5_IRQHandler
    1563                    ;----------------------------------------------------------------------
    1564                    ; 161 | void PORT5_IRQHandler() //changes what happens to button on port 5     
    1565                    ;----------------------------------------------------------------------
    1566                    
    1567                    ;*****************************************************************************
    1568                    ;* FUNCTION NAME: PORT5_IRQHandler                                           *
    1569                    ;*                                                                           *
    1570                    ;*   Regs Modified     :                                                     *
    1571                    ;*   Regs Used         : LR                                                  *
    1572                    ;*   Local Frame Size  : 0 Args + 0 Auto + 0 Save = 0 byte                   *
    1573                    ;*****************************************************************************
    1574 00000000           PORT5_IRQHandler:
    1575                    ;* --------------------------------------------------------------------------*
    1576                            .dwcfi  cfa_offset, 0
    1577                    $C$DW$101       .dwtag  DW_TAG_TI_branch
    1578                            .dwattr $C$DW$101, DW_AT_low_pc(0x00)
    1579                            .dwattr $C$DW$101, DW_AT_TI_return
    1580                    
    1581 00000000 4770              BX        LR                    ; [DPU_3_PIPE]  ; [ORIG 16-BIT INS]
    1582                            ; BRANCH OCCURS                  ; [] 
    1583                            .dwattr $C$DW$100, DW_AT_TI_end_file("../main.c")
    1584                            .dwattr $C$DW$100, DW_AT_TI_end_line(0xa8)
    1585                            .dwattr $C$DW$100, DW_AT_TI_end_column(0x01)
    1586                            .dwendentry
    1587                            .dwendtag $C$DW$100
    1588                    
    1589 00000000                   .sect   ".text:PORT3_IRQHandler"
    1590                            .clink
    1591                            .thumbfunc PORT3_IRQHandler
    1592 00000000                   .thumb
    1593                            .global PORT3_IRQHandler
    1594                    
    1595                    $C$DW$102       .dwtag  DW_TAG_subprogram
TI ARM Assembler Unix v16.9.0 Sat Apr 29 13:25:12 2017

Tools Copyright (c) 1996-2015 Texas Instruments Incorporated
main.asm                                                             PAGE   30

    1596                            .dwattr $C$DW$102, DW_AT_name("PORT3_IRQHandler")
    1597                            .dwattr $C$DW$102, DW_AT_low_pc(PORT3_IRQHandler)
    1598                            .dwattr $C$DW$102, DW_AT_high_pc(0x00)
    1599                            .dwattr $C$DW$102, DW_AT_TI_symbol_name("PORT3_IRQHandler")
    1600                            .dwattr $C$DW$102, DW_AT_external
    1601                            .dwattr $C$DW$102, DW_AT_TI_begin_file("../main.c")
    1602                            .dwattr $C$DW$102, DW_AT_TI_begin_line(0xa9)
    1603                            .dwattr $C$DW$102, DW_AT_TI_begin_column(0x06)
    1604                            .dwattr $C$DW$102, DW_AT_decl_file("../main.c")
    1605                            .dwattr $C$DW$102, DW_AT_decl_line(0xa9)
    1606                            .dwattr $C$DW$102, DW_AT_decl_column(0x06)
    1607                            .dwattr $C$DW$102, DW_AT_TI_max_frame_size(0x28)
    1608                            .dwpsn  file "../main.c",line 170,column 1,is_stmt,address PORT3_IRQHandler,isa 1
    1609                    
    1610                            .dwfde $C$DW$CIE, PORT3_IRQHandler
    1611                    ;----------------------------------------------------------------------
    1612                    ; 169 | void PORT3_IRQHandler() //changes what happens to button on port 3     
    1613                    ;----------------------------------------------------------------------
    1614                    
    1615                    ;*****************************************************************************
    1616                    ;* FUNCTION NAME: PORT3_IRQHandler                                           *
    1617                    ;*                                                                           *
    1618                    ;*   Regs Modified     : A1,A2,A3,A4,V1,V2,V3,V9,SP,LR,SR,D0,D0_hi,D1,D1_hi, *
    1619                    ;*                           D2,D2_hi,D3,D3_hi,D4,D4_hi,D5,D5_hi,D6,D6_hi,D7,*
    1620                    ;*                           D7_hi,FPEXC,FPSCR                               *
    1621                    ;*   Regs Used         : A1,A2,A3,A4,V1,V2,V3,V9,SP,LR,SR,D0,D0_hi,D1,D1_hi, *
    1622                    ;*                           D2,D2_hi,D3,D3_hi,D4,D4_hi,D5,D5_hi,D6,D6_hi,D7,*
    1623                    ;*                           D7_hi,FPEXC,FPSCR                               *
    1624                    ;*   Local Frame Size  : 8 Args + 16 Auto + 16 Save = 40 byte                *
    1625                    ;*****************************************************************************
    1626                    PORT3_IRQHandler:
    1627                    ;* --------------------------------------------------------------------------*
    1628                    $C$DW$103       .dwtag  DW_TAG_variable
    1629                            .dwattr $C$DW$103, DW_AT_name("string_option")
    1630                            .dwattr $C$DW$103, DW_AT_TI_symbol_name("string_option")
    1631                            .dwattr $C$DW$103, DW_AT_type(*$C$DW$T$400)
    1632                            .dwattr $C$DW$103, DW_AT_location[DW_OP_breg13 8]
    1633                    
    1634                    ;* A1    assigned to $O$K2
    1635                    ;* V3    assigned to $O$K11
    1636                            .dwcfi  cfa_offset, 0
    1637                            .dwpsn  file "../main.c",line 171,column 5,is_stmt,isa 1
    1638                    ;----------------------------------------------------------------------
    1639                    ; 171 | if (BUTTON_PORT2->IFG & BUTTON_BIT2)//switch                           
    1640                    ; 172 |     { // check that it is the button interrupt flag                    
    1641                    ;----------------------------------------------------------------------
    1642 00000000 4822              LDR       A1, $C$CON33          ; [DPU_3_PIPE] |171|  ; [ORIG 16-BIT INS]
    1643 00000002 B570              PUSH      {V1, V2, V3, LR}      ; [DPU_3_PIPE]  ; [ORIG 16-BIT INS]
    1644                            .dwcfi  cfa_offset, 16
    1645                            .dwcfi  save_reg_to_mem, 14, -4
    1646                            .dwcfi  save_reg_to_mem, 6, -8
    1647                            .dwcfi  save_reg_to_mem, 5, -12
    1648                            .dwcfi  save_reg_to_mem, 4, -16
    1649 00000004 3820              SUBS      A1, A1, #32           ; [DPU_3_PIPE]  ; [ORIG 16-BIT INS]
    1650 00000006 7F01              LDRB      A2, [A1, #28]         ; [DPU_3_PIPE] |171|  ; [ORIG 16-BIT INS]
TI ARM Assembler Unix v16.9.0 Sat Apr 29 13:25:12 2017

Tools Copyright (c) 1996-2015 Texas Instruments Incorporated
main.asm                                                             PAGE   31

    1651 00000008 0D18F1AD          SUB       SP, SP, #24           ; [DPU_3_PIPE]  ; [KEEP 32-BIT INS]
    1652                            .dwcfi  cfa_offset, 40
    1653 0000000c 0989              LSRS      A2, A2, #6            ; [DPU_3_PIPE] |171|  ; [ORIG 16-BIT INS]
    1654 0000000e D322              BCC       ||$C$L14||            ; [DPU_3_PIPE] |171|  ; [ORIG 16-BIT INS]
    1655                            ; BRANCHCC OCCURS {||$C$L14||}   ; [] |171| 
    1656                    ;* --------------------------------------------------------------------------*
    1657                            .dwpsn  file "../main.c",line 173,column 13,is_stmt,isa 1
    1658                    ;----------------------------------------------------------------------
    1659                    ; 173 | BUTTON_PORT2->IFG &= ~BUTTON_BIT2; // clear the flag to allow for anoth
    1660                    ;     | er interrupt later.                                                    
    1661                    ; 175 | char string_option[15];                                                
    1662                    ;----------------------------------------------------------------------
    1663 00000010 7F01              LDRB      A2, [A1, #28]         ; [DPU_3_PIPE] |173|  ; [ORIG 16-BIT INS]
    1664                            .dwpsn  file "../main.c",line 176,column 13,is_stmt,isa 1
    1665                    ;----------------------------------------------------------------------
    1666                    ; 176 | switch (state)                                                         
    1667                    ;----------------------------------------------------------------------
    1668 00000012 4E1F              LDR       V3, $C$CON34          ; [DPU_3_PIPE] |176|  ; [ORIG 16-BIT INS]
    1669                            .dwpsn  file "../main.c",line 173,column 13,is_stmt,isa 1
    1670 00000014 01DFF001          AND       A2, A2, #223          ; [DPU_3_PIPE] |173|  ; [KEEP 32-BIT INS]
    1671 00000018 7701              STRB      A2, [A1, #28]         ; [DPU_3_PIPE] |173|  ; [ORIG 16-BIT INS]
    1672                            .dwpsn  file "../main.c",line 176,column 13,is_stmt,isa 1
    1673                    ;----------------------------------------------------------------------
    1674                    ; 178 | case 0:                                                                
    1675                    ; 181 |     sprintf(string_option, "Option: eat");                             
    1676                    ; 182 |      Graphics_drawStringCentered(&g_sContext,(int8_t *)string_option, A
    1677                    ;     | UTO_STRING_LENGTH, 64,10,OPAQUE_TEXT);                                 
    1678                    ; 183 |      //Graphics_drawImage(&g_sContext, &color4BPP_UNCOMP, 45, 45);     
    1679                    ; 184 |     state=1;                                                           
    1680                    ; 185 |     break;                                                             
    1681                    ; 187 | case 1:                                                                
    1682                    ; 189 |     sprintf(string_option, "Option: play");                            
    1683                    ; 190 |      Graphics_drawStringCentered(&g_sContext,(int8_t *)string_option, A
    1684                    ;     | UTO_STRING_LENGTH, 64,10,OPAQUE_TEXT);                                 
    1685                    ; 191 |      //Graphics_drawImage(&g_sContext, &color24BPP_UNCOMP, 45, 45);    
    1686                    ; 192 |     state=2;                                                           
    1687                    ; 193 |     break;                                                             
    1688                    ; 195 | case 2:                                                                
    1689                    ; 197 |     sprintf(string_option, "Option: walk");                            
    1690                    ; 198 |     Graphics_drawStringCentered(&g_sContext,(int8_t *)string_option, AU
    1691                    ;     | TO_STRING_LENGTH, 64,10,OPAQUE_TEXT);                                  
    1692                    ;----------------------------------------------------------------------
    1693 0000001a 6830              LDR       A1, [V3, #0]          ; [DPU_3_PIPE] |176|  ; [ORIG 16-BIT INS]
    1694 0000001c B150              CBZ       A1, ||$C$L12||        ; []  ; [ORIG 16-BIT INS]
    1695                            ; BRANCHCC OCCURS {||$C$L12||}   ; [] |176| 
    1696                    ;* --------------------------------------------------------------------------*
    1697 0000001e 1E40              SUBS      A1, A1, #1            ; [DPU_3_PIPE] |176|  ; [ORIG 16-BIT INS]
    1698 00000020 D004              BEQ       ||$C$L10||            ; [DPU_3_PIPE] |176|  ; [ORIG 16-BIT INS]
    1699                            ; BRANCHCC OCCURS {||$C$L10||}   ; [] |176| 
    1700                    ;* --------------------------------------------------------------------------*
    1701 00000022 1E40              SUBS      A1, A1, #1            ; [DPU_3_PIPE] |176|  ; [ORIG 16-BIT INS]
    1702 00000024 D117              BNE       ||$C$L14||            ; [DPU_3_PIPE] |176|  ; [ORIG 16-BIT INS]
    1703                            ; BRANCHCC OCCURS {||$C$L14||}   ; [] |176| 
    1704                    ;* --------------------------------------------------------------------------*
    1705                            .dwpsn  file "../main.c",line 200,column 25,is_stmt,isa 1
TI ARM Assembler Unix v16.9.0 Sat Apr 29 13:25:12 2017

Tools Copyright (c) 1996-2015 Texas Instruments Incorporated
main.asm                                                             PAGE   32

    1706                    ;----------------------------------------------------------------------
    1707                    ; 200 | state=0;                                                               
    1708                    ;----------------------------------------------------------------------
    1709 00000026 2500              MOVS      V2, #0                ; [DPU_3_PIPE] |200|  ; [ORIG 16-BIT INS]
    1710                            .dwpsn  file "../main.c",line 197,column 25,is_stmt,isa 1
    1711 00000028 A10C              ADR       A2, $C$SL2            ; [DPU_3_PIPE] |197|  ; [ORIG 16-BIT INS]
    1712                            .dwpsn  file "../main.c",line 201,column 25,is_stmt,isa 1
    1713                    ;----------------------------------------------------------------------
    1714                    ; 201 | break;                                                                 
    1715                    ;----------------------------------------------------------------------
    1716 0000002a E001              B         ||$C$L11||            ; [DPU_3_PIPE] |201|  ; [ORIG 16-BIT INS]
    1717                            ; BRANCH OCCURS {||$C$L11||}     ; [] |201| 
    1718                    ;* --------------------------------------------------------------------------*
    1719 0000002c           ||$C$L10||:    
    1720                            .dwpsn  file "../main.c",line 192,column 25,is_stmt,isa 1
    1721 0000002c 2502              MOVS      V2, #2                ; [DPU_3_PIPE] |192|  ; [ORIG 16-BIT INS]
    1722                            .dwpsn  file "../main.c",line 189,column 25,is_stmt,isa 1
    1723 0000002e A10F              ADR       A2, $C$SL3            ; [DPU_3_PIPE] |189|  ; [ORIG 16-BIT INS]
    1724                    ;* --------------------------------------------------------------------------*
    1725 00000030           ||$C$L11||:    
    1726                            .dwpsn  file "../main.c",line 190,column 26,is_stmt,isa 1
    1727 00000030 2401              MOVS      V1, #1                ; [DPU_3_PIPE] |190|  ; [ORIG 16-BIT INS]
    1728                            .dwpsn  file "../main.c",line 193,column 25,is_stmt,isa 1
    1729 00000032 E002              B         ||$C$L13||            ; [DPU_3_PIPE] |193|  ; [ORIG 16-BIT INS]
    1730                            ; BRANCH OCCURS {||$C$L13||}     ; [] |193| 
    1731                    ;* --------------------------------------------------------------------------*
    1732 00000034           ||$C$L12||:    
    1733                            .dwpsn  file "../main.c",line 182,column 26,is_stmt,isa 1
    1734 00000034 2401              MOVS      V1, #1                ; [DPU_3_PIPE] |182|  ; [ORIG 16-BIT INS]
    1735                            .dwpsn  file "../main.c",line 181,column 25,is_stmt,isa 1
    1736 00000036 A111              ADR       A2, $C$SL4            ; [DPU_3_PIPE] |181|  ; [ORIG 16-BIT INS]
    1737                            .dwpsn  file "../main.c",line 182,column 26,is_stmt,isa 1
    1738 00000038 4625              MOV       V2, V1                ; [DPU_3_PIPE] |182|  ; [ORIG 16-BIT INS]
    1739                    ;* --------------------------------------------------------------------------*
    1740 0000003a           ||$C$L13||:    
    1741                            .dwpsn  file "../main.c",line 181,column 25,is_stmt,isa 1
    1742 0000003a A802              ADD       A1, SP, #8            ; [DPU_3_PIPE] |181|  ; [ORIG 16-BIT INS]
    1743                    $C$DW$104       .dwtag  DW_TAG_TI_branch
    1744                            .dwattr $C$DW$104, DW_AT_low_pc(0x00)
    1745                            .dwattr $C$DW$104, DW_AT_name("sprintf")
    1746                            .dwattr $C$DW$104, DW_AT_TI_call
    1747                    
    1748 0000003c FFFEF7FF!         BL        sprintf               ; [DPU_3_PIPE] |181|  ; [KEEP 32-BIT INS]
    1749                            ; CALL OCCURS {sprintf }         ; [] |181| 
    1750                            .dwpsn  file "../main.c",line 182,column 26,is_stmt,isa 1
    1751 00000040 200A              MOVS      A1, #10               ; [DPU_3_PIPE] |182|  ; [ORIG 16-BIT INS]
    1752 00000042 A902              ADD       A2, SP, #8            ; [DPU_3_PIPE] |182|  ; [ORIG 16-BIT INS]
    1753 00000044 32FFF04F          MOV       A3, #-1               ; [DPU_3_PIPE] |182|  ; [KEEP 32-BIT INS]
    1754 00000048 2340              MOVS      A4, #64               ; [DPU_3_PIPE] |182|  ; [ORIG 16-BIT INS]
    1755 0000004a 9000              STR       A1, [SP, #0]          ; [DPU_3_PIPE] |182|  ; [ORIG 16-BIT INS]
    1756 0000004c 480E              LDR       A1, $C$CON32          ; [DPU_3_PIPE] |182|  ; [ORIG 16-BIT INS]
    1757 0000004e 9401              STR       V1, [SP, #4]          ; [DPU_3_PIPE] |182|  ; [ORIG 16-BIT INS]
    1758                    $C$DW$105       .dwtag  DW_TAG_TI_branch
    1759                            .dwattr $C$DW$105, DW_AT_low_pc(0x00)
    1760                            .dwattr $C$DW$105, DW_AT_name("Graphics_drawStringCentered")
TI ARM Assembler Unix v16.9.0 Sat Apr 29 13:25:12 2017

Tools Copyright (c) 1996-2015 Texas Instruments Incorporated
main.asm                                                             PAGE   33

    1761                            .dwattr $C$DW$105, DW_AT_TI_call
    1762                    
    1763 00000050 FFFEF7FF!         BL        Graphics_drawStringCentered ; [DPU_3_PIPE] |182|  ; [KEEP 32-BIT INS]
    1764                            ; CALL OCCURS {Graphics_drawStringCentered }  ; [] |182| 
    1765                            .dwpsn  file "../main.c",line 184,column 25,is_stmt,isa 1
    1766 00000054 6035              STR       V2, [V3, #0]          ; [DPU_3_PIPE] |184|  ; [ORIG 16-BIT INS]
    1767                    ;* --------------------------------------------------------------------------*
    1768 00000056           ||$C$L14||:    
    1769 00000056 B006              ADD       SP, SP, #24           ; [DPU_3_PIPE]  ; [ORIG 16-BIT INS]
    1770                            .dwcfi  cfa_offset, 16
    1771                    $C$DW$106       .dwtag  DW_TAG_TI_branch
    1772                            .dwattr $C$DW$106, DW_AT_low_pc(0x00)
    1773                            .dwattr $C$DW$106, DW_AT_TI_return
    1774                    
    1775 00000058 BD70              POP       {V1, V2, V3, PC}      ; [DPU_3_PIPE]  ; [ORIG 16-BIT INS]
    1776                            .dwcfi  cfa_offset, 0
    1777                            ; BRANCH OCCURS                  ; [] 
    1778                            .dwattr $C$DW$102, DW_AT_TI_end_file("../main.c")
    1779                            .dwattr $C$DW$102, DW_AT_TI_end_line(0xcd)
    1780                            .dwattr $C$DW$102, DW_AT_TI_end_column(0x01)
    1781                            .dwendentry
    1782                            .dwendtag $C$DW$102
    1783                    
    1784 00000000                   .sect   ".text:Display_happy"
    1785                            .clink
    1786                            .thumbfunc Display_happy
    1787 00000000                   .thumb
    1788                            .global Display_happy
    1789                    
    1790                    $C$DW$107       .dwtag  DW_TAG_subprogram
    1791                            .dwattr $C$DW$107, DW_AT_name("Display_happy")
    1792                            .dwattr $C$DW$107, DW_AT_low_pc(Display_happy)
    1793                            .dwattr $C$DW$107, DW_AT_high_pc(0x00)
    1794                            .dwattr $C$DW$107, DW_AT_TI_symbol_name("Display_happy")
    1795                            .dwattr $C$DW$107, DW_AT_external
    1796                            .dwattr $C$DW$107, DW_AT_TI_begin_file("../pet_graphics.h")
    1797                            .dwattr $C$DW$107, DW_AT_TI_begin_line(0x30)
    1798                            .dwattr $C$DW$107, DW_AT_TI_begin_column(0x06)
    1799                            .dwattr $C$DW$107, DW_AT_decl_file("../pet_graphics.h")
    1800                            .dwattr $C$DW$107, DW_AT_decl_line(0x30)
    1801                            .dwattr $C$DW$107, DW_AT_decl_column(0x06)
    1802                            .dwattr $C$DW$107, DW_AT_TI_max_frame_size(0x08)
    1803                            .dwpsn  file "../pet_graphics.h",line 49,column 1,is_stmt,address Display_happy,isa 1
    1804                    
    1805                            .dwfde $C$DW$CIE, Display_happy
    1806                    ;----------------------------------------------------------------------
    1807                    ;  48 | void Display_happy()                                                   
    1808                    ;----------------------------------------------------------------------
    1809                    
    1810                    ;*****************************************************************************
    1811                    ;* FUNCTION NAME: Display_happy                                              *
    1812                    ;*                                                                           *
    1813                    ;*   Regs Modified     : A1,A2,A3,A4,V1,V9,SP,LR,SR,D0,D0_hi,D1,D1_hi,D2,    *
    1814                    ;*                           D2_hi,D3,D3_hi,D4,D4_hi,D5,D5_hi,D6,D6_hi,D7,   *
    1815                    ;*                           D7_hi,FPEXC,FPSCR                               *
TI ARM Assembler Unix v16.9.0 Sat Apr 29 13:25:12 2017

Tools Copyright (c) 1996-2015 Texas Instruments Incorporated
main.asm                                                             PAGE   34

    1816                    ;*   Regs Used         : A1,A2,A3,A4,V1,V9,SP,LR,SR,D0,D0_hi,D1,D1_hi,D2,    *
    1817                    ;*                           D2_hi,D3,D3_hi,D4,D4_hi,D5,D5_hi,D6,D6_hi,D7,   *
    1818                    ;*                           D7_hi,FPEXC,FPSCR                               *
    1819                    ;*   Local Frame Size  : 0 Args + 0 Auto + 8 Save = 8 byte                   *
    1820                    ;*****************************************************************************
    1821 00000000           Display_happy:
    1822                    ;* --------------------------------------------------------------------------*
    1823                    ;* V1    assigned to $O$K1
    1824                            .dwcfi  cfa_offset, 0
    1825 00000000 B510              PUSH      {V1, LR}              ; [DPU_3_PIPE]  ; [ORIG 16-BIT INS]
    1826                            .dwcfi  cfa_offset, 8
    1827                            .dwcfi  save_reg_to_mem, 14, -4
    1828                            .dwcfi  save_reg_to_mem, 4, -8
    1829                            .dwpsn  file "../pet_graphics.h",line 50,column 5,is_stmt,isa 1
    1830                    ;----------------------------------------------------------------------
    1831                    ;  50 | switch(loop)                                                           
    1832                    ;  52 | case 0:                                                                
    1833                    ;----------------------------------------------------------------------
    1834 00000002 4C0E              LDR       V1, $C$CON35          ; [DPU_3_PIPE] |50|  ; [ORIG 16-BIT INS]
    1835                            .dwpsn  file "../pet_graphics.h",line 53,column 9,is_stmt,isa 1
    1836                    ;----------------------------------------------------------------------
    1837                    ;  53 | Graphics_drawImage(&g_sContext, &happy14BPP_UNCOMP, 45, 45);           
    1838                    ;  54 | loop++;                                                                
    1839                    ;  55 | break;                                                                 
    1840                    ;  56 | case 1:                                                                
    1841                    ;  57 | Graphics_drawImage(&g_sContext, &happy24BPP_UNCOMP, 45, 45);           
    1842                    ;  58 | loop++;                                                                
    1843                    ;  59 | break;                                                                 
    1844                    ;  60 | case 2:                                                                
    1845                    ;----------------------------------------------------------------------
    1846 00000004 4A0E              LDR       A3, $C$CON36          ; [DPU_3_PIPE] |53|  ; [ORIG 16-BIT INS]
    1847                            .dwpsn  file "../pet_graphics.h",line 50,column 5,is_stmt,isa 1
    1848 00000006 6820              LDR       A1, [V1, #0]          ; [DPU_3_PIPE] |50|  ; [ORIG 16-BIT INS]
    1849 00000008 B168              CBZ       A1, ||$C$L16||        ; []  ; [ORIG 16-BIT INS]
    1850                            ; BRANCHCC OCCURS {||$C$L16||}   ; [] |50| 
    1851                    ;* --------------------------------------------------------------------------*
    1852 0000000a 1E40              SUBS      A1, A1, #1            ; [DPU_3_PIPE] |50|  ; [ORIG 16-BIT INS]
    1853 0000000c D009              BEQ       ||$C$L15||            ; [DPU_3_PIPE] |50|  ; [ORIG 16-BIT INS]
    1854                            ; BRANCHCC OCCURS {||$C$L15||}   ; [] |50| 
    1855                    ;* --------------------------------------------------------------------------*
    1856 0000000e 1E40              SUBS      A1, A1, #1            ; [DPU_3_PIPE] |50|  ; [ORIG 16-BIT INS]
    1857 00000010 D112              BNE       ||$C$L19||            ; [DPU_3_PIPE] |50|  ; [ORIG 16-BIT INS]
    1858                            ; BRANCHCC OCCURS {||$C$L19||}   ; [] |50| 
    1859                    ;* --------------------------------------------------------------------------*
    1860                            .dwpsn  file "../pet_graphics.h",line 61,column 9,is_stmt,isa 1
    1861                    ;----------------------------------------------------------------------
    1862                    ;  61 | Graphics_drawImage(&g_sContext, &happy34BPP_UNCOMP, 45, 45);           
    1863                    ;----------------------------------------------------------------------
    1864 00000012 490C              LDR       A2, $C$CON37          ; [DPU_3_PIPE] |61|  ; [ORIG 16-BIT INS]
    1865 00000014 4610              MOV       A1, A3                ; [DPU_3_PIPE] |61|  ; [ORIG 16-BIT INS]
    1866 00000016 222D              MOVS      A3, #45               ; [DPU_3_PIPE] |61|  ; [ORIG 16-BIT INS]
    1867 00000018 4613              MOV       A4, A3                ; [DPU_3_PIPE] |61|  ; [ORIG 16-BIT INS]
    1868                    $C$DW$108       .dwtag  DW_TAG_TI_branch
    1869                            .dwattr $C$DW$108, DW_AT_low_pc(0x00)
    1870                            .dwattr $C$DW$108, DW_AT_name("Graphics_drawImage")
TI ARM Assembler Unix v16.9.0 Sat Apr 29 13:25:12 2017

Tools Copyright (c) 1996-2015 Texas Instruments Incorporated
main.asm                                                             PAGE   35

    1871                            .dwattr $C$DW$108, DW_AT_TI_call
    1872                    
    1873 0000001a FFFEF7FF!         BL        Graphics_drawImage    ; [DPU_3_PIPE] |61|  ; [KEEP 32-BIT INS]
    1874                            ; CALL OCCURS {Graphics_drawImage }  ; [] |61| 
    1875                            .dwpsn  file "../pet_graphics.h",line 62,column 9,is_stmt,isa 1
    1876                    ;----------------------------------------------------------------------
    1877                    ;  62 | loop = 0;                                                              
    1878                    ;----------------------------------------------------------------------
    1879 0000001e 2000              MOVS      A1, #0                ; [DPU_3_PIPE] |62|  ; [ORIG 16-BIT INS]
    1880                            .dwpsn  file "../pet_graphics.h",line 63,column 9,is_stmt,isa 1
    1881                    ;----------------------------------------------------------------------
    1882                    ;  63 | break;                                                                 
    1883                    ;  64 | default: break;                                                        
    1884                    ;----------------------------------------------------------------------
    1885 00000020 E009              B         ||$C$L18||            ; [DPU_3_PIPE] |63|  ; [ORIG 16-BIT INS]
    1886                            ; BRANCH OCCURS {||$C$L18||}     ; [] |63| 
    1887                    ;* --------------------------------------------------------------------------*
    1888 00000022           ||$C$L15||:    
    1889                            .dwpsn  file "../pet_graphics.h",line 57,column 9,is_stmt,isa 1
    1890 00000022 4909              LDR       A2, $C$CON38          ; [DPU_3_PIPE] |57|  ; [ORIG 16-BIT INS]
    1891                            .dwpsn  file "../pet_graphics.h",line 59,column 9,is_stmt,isa 1
    1892 00000024 E000              B         ||$C$L17||            ; [DPU_3_PIPE] |59|  ; [ORIG 16-BIT INS]
    1893                            ; BRANCH OCCURS {||$C$L17||}     ; [] |59| 
    1894                    ;* --------------------------------------------------------------------------*
    1895 00000026           ||$C$L16||:    
    1896                            .dwpsn  file "../pet_graphics.h",line 53,column 9,is_stmt,isa 1
    1897 00000026 4909              LDR       A2, $C$CON40          ; [DPU_3_PIPE] |53|  ; [ORIG 16-BIT INS]
    1898                    ;* --------------------------------------------------------------------------*
    1899 00000028           ||$C$L17||:    
    1900 00000028 4610              MOV       A1, A3                ; [DPU_3_PIPE] |53|  ; [ORIG 16-BIT INS]
    1901 0000002a 222D              MOVS      A3, #45               ; [DPU_3_PIPE] |53|  ; [ORIG 16-BIT INS]
    1902 0000002c 4613              MOV       A4, A3                ; [DPU_3_PIPE] |53|  ; [ORIG 16-BIT INS]
    1903                    $C$DW$109       .dwtag  DW_TAG_TI_branch
    1904                            .dwattr $C$DW$109, DW_AT_low_pc(0x00)
    1905                            .dwattr $C$DW$109, DW_AT_name("Graphics_drawImage")
    1906                            .dwattr $C$DW$109, DW_AT_TI_call
    1907                    
    1908 0000002e FFFEF7FF!         BL        Graphics_drawImage    ; [DPU_3_PIPE] |53|  ; [KEEP 32-BIT INS]
    1909                            ; CALL OCCURS {Graphics_drawImage }  ; [] |53| 
    1910                            .dwpsn  file "../pet_graphics.h",line 54,column 9,is_stmt,isa 1
    1911 00000032 6820              LDR       A1, [V1, #0]          ; [DPU_3_PIPE] |54|  ; [ORIG 16-BIT INS]
    1912 00000034 1C40              ADDS      A1, A1, #1            ; [DPU_3_PIPE] |54|  ; [ORIG 16-BIT INS]
    1913                    ;* --------------------------------------------------------------------------*
    1914 00000036           ||$C$L18||:    
    1915 00000036 6020              STR       A1, [V1, #0]          ; [DPU_3_PIPE] |54|  ; [ORIG 16-BIT INS]
    1916                    ;* --------------------------------------------------------------------------*
    1917                    ||$C$L19||:    
    1918                    $C$DW$110       .dwtag  DW_TAG_TI_branch
    1919                            .dwattr $C$DW$110, DW_AT_low_pc(0x00)
    1920                            .dwattr $C$DW$110, DW_AT_TI_return
    1921                    
    1922 00000038 BD10              POP       {V1, PC}              ; [DPU_3_PIPE]  ; [ORIG 16-BIT INS]
    1923                            .dwcfi  cfa_offset, 0
    1924                            ; BRANCH OCCURS                  ; [] 
    1925                            .dwattr $C$DW$107, DW_AT_TI_end_file("../pet_graphics.h")
TI ARM Assembler Unix v16.9.0 Sat Apr 29 13:25:12 2017

Tools Copyright (c) 1996-2015 Texas Instruments Incorporated
main.asm                                                             PAGE   36

    1926                            .dwattr $C$DW$107, DW_AT_TI_end_line(0x42)
    1927                            .dwattr $C$DW$107, DW_AT_TI_end_column(0x01)
    1928                            .dwendentry
    1929                            .dwendtag $C$DW$107
    1930                    
    1931                    ;******************************************************************************
    1932                    ;* CONSTANT TABLE                                                             *
    1933                    ;******************************************************************************
    1934 00000012                   .sect   ".text:mapports"
    1935                            .align  4
    1936 00000012 500046C0  ||$C$CON1||:    .bits   1073762304,32
         00000016 00004000 
    1937                    ;******************************************************************************
    1938                    ;* CONSTANT TABLE                                                             *
    1939                    ;******************************************************************************
    1940 00000036                   .sect   ".text:init_timer"
    1941                            .align  4
    1942 00000036 000046C0! ||$C$CON2||:    .bits   half_period,32
         0000003a 00000000 
    1943                            .align  4
    1944 0000003a 4C000000  ||$C$CON3||:    .bits   1073761280,32
         0000003e 00004000 
    1945                    ;******************************************************************************
    1946                    ;* CONSTANT TABLE                                                             *
    1947                    ;******************************************************************************
    1948 0000006a                   .sect   ".text:init_button"
    1949                            .align  4
    1950 0000006a 4C0046C0  ||$C$CON5||:    .bits   1073761280,32
         0000006e 00004000 
    1951                    ;******************************************************************************
    1952                    ;* CONSTANT TABLE                                                             *
    1953                    ;******************************************************************************
    1954 00000038                   .sect   ".text:init_display"
    1955                            .align  4
    1956 00000038 00000000! ||$C$CON6||:    .bits   g_sContext,32
    1957                            .align  4
    1958 0000003c 00000000! ||$C$CON7||:    .bits   g_sCrystalfontz128x128,32
    1959                            .align  4
    1960 00000040 00000000! ||$C$CON8||:    .bits   g_sCrystalfontz128x128_funcs,32
    1961                            .align  4
    1962 00000044 00FFFF00  ||$C$CON9||:    .bits   16776960,32
    1963                            .align  4
    1964 00000048 00000000! ||$C$CON10||:   .bits   g_sFontFixed6x8,32
    1965                    ;******************************************************************************
    1966                    ;* STRINGS                                                                    *
    1967                    ;******************************************************************************
    1968 00000098                   .sect   ".text:main"
    1969                            .align  4
    1970 00000098 48        ||$C$SL1||:     .string "Health: %03d",0
         00000099 65       
         0000009a 61       
         0000009b 6C       
         0000009c 74       
         0000009d 68       
         0000009e 3A       
TI ARM Assembler Unix v16.9.0 Sat Apr 29 13:25:12 2017

Tools Copyright (c) 1996-2015 Texas Instruments Incorporated
main.asm                                                             PAGE   37

         0000009f 20       
         000000a0 25       
         000000a1 30       
         000000a2 33       
         000000a3 64       
         000000a4 00       
    1971                    ;******************************************************************************
    1972                    ;* CONSTANT TABLE                                                             *
    1973                    ;******************************************************************************
    1974 000000a5                   .sect   ".text:main"
    1975                            .align  4
    1976 000000a8 5FFF6708  ||$C$CON11||:   .bits   1610573576,32
    1977                            .align  4
    1978 000000ac E000E104  ||$C$CON12||:   .bits   -536813308,32
    1979                            .align  4
    1980 000000b0 00000000! ||$C$CON13||:   .bits   state,32
    1981                            .align  4
    1982 000000b4 00000000! ||$C$CON15||:   .bits   health,32
    1983                            .align  4
    1984 000000b8 02000834  ||$C$CON16||:   .bits   33556532,32
    1985                            .align  4
    1986 000000bc 00000000! ||$C$CON18||:   .bits   g_sContext,32
    1987                    ;******************************************************************************
    1988                    ;* CONSTANT TABLE                                                             *
    1989                    ;******************************************************************************
    1990 00000072                   .sect   ".text:WDT_A_IRQHandler"
    1991                            .align  4
    1992 00000072 4C4046C0  ||$C$CON19||:   .bits   1073761344,32
         00000076 00004000 
    1993                            .align  4
    1994 00000076 00004000! ||$C$CON20||:   .bits   health,32
         0000007a 00000000 
    1995                            .align  4
    1996 0000007a 00000000! ||$C$CON21||:   .bits   g_sContext,32
         0000007e 00000000 
    1997                            .align  4
    1998 0000007e 00000000! ||$C$CON22||:   .bits   normal14BPP_UNCOMP,32
         00000082 00000000 
    1999                            .align  4
    2000 00000082 00000000! ||$C$CON23||:   .bits   unhappy14BPP_UNCOMP,32
         00000086 00000000 
    2001                            .align  4
    2002 00000086 00000000! ||$C$CON24||:   .bits   happy14BPP_UNCOMP,32
         0000008a 00000000 
    2003                            .align  4
    2004 0000008a 00000000! ||$C$CON26||:   .bits   play14BPP_UNCOMP,32
         0000008e 00000000 
    2005                            .align  4
    2006 0000008e 00000000! ||$C$CON27||:   .bits   eat14BPP_UNCOMP,32
         00000092 00000000 
    2007                            .align  4
    2008 00000092 00000000! ||$C$CON28||:   .bits   walk14BPP_UNCOMP,32
         00000096 00000000 
    2009                            .align  4
    2010 00000096 00000000! ||$C$CON29||:   .bits   state,32
TI ARM Assembler Unix v16.9.0 Sat Apr 29 13:25:12 2017

Tools Copyright (c) 1996-2015 Texas Instruments Incorporated
main.asm                                                             PAGE   38

         0000009a 00000000 
    2011                    ;******************************************************************************
    2012                    ;* STRINGS                                                                    *
    2013                    ;******************************************************************************
    2014 0000005a                   .sect   ".text:PORT3_IRQHandler"
    2015                            .align  4
    2016 0000005c 4F        ||$C$SL2||:     .string "Option: walk",0
         0000005d 70       
         0000005e 74       
         0000005f 69       
         00000060 6F       
         00000061 6E       
         00000062 3A       
         00000063 20       
         00000064 77       
         00000065 61       
         00000066 6C       
         00000067 6B       
         00000068 00       
    2017                            .align  4
    2018 0000006c 4F        ||$C$SL3||:     .string "Option: play",0
         0000006d 70       
         0000006e 74       
         0000006f 69       
         00000070 6F       
         00000071 6E       
         00000072 3A       
         00000073 20       
         00000074 70       
         00000075 6C       
         00000076 61       
         00000077 79       
         00000078 00       
    2019                            .align  4
    2020 0000007c 4F        ||$C$SL4||:     .string "Option: eat",0
         0000007d 70       
         0000007e 74       
         0000007f 69       
         00000080 6F       
         00000081 6E       
         00000082 3A       
         00000083 20       
         00000084 65       
         00000085 61       
         00000086 74       
         00000087 00       
    2021                    ;******************************************************************************
    2022                    ;* CONSTANT TABLE                                                             *
    2023                    ;******************************************************************************
    2024 00000088                   .sect   ".text:PORT3_IRQHandler"
    2025                            .align  4
    2026 00000086 00000074! ||$C$CON32||:   .bits   g_sContext,32
         0000008a 00000000 
    2027                            .align  4
    2028 0000008a 4C400000  ||$C$CON33||:   .bits   1073761344,32
TI ARM Assembler Unix v16.9.0 Sat Apr 29 13:25:12 2017

Tools Copyright (c) 1996-2015 Texas Instruments Incorporated
main.asm                                                             PAGE   39

         0000008e 00004000 
    2029                            .align  4
    2030 0000008e 00004000! ||$C$CON34||:   .bits   state,32
         00000092 00000000 
    2031                    ;******************************************************************************
    2032                    ;* CONSTANT TABLE                                                             *
    2033                    ;******************************************************************************
    2034 0000003a                   .sect   ".text:Display_happy"
    2035                            .align  4
    2036 0000003a 000046C0! ||$C$CON35||:   .bits   loop,32
         0000003e 00000000 
    2037                            .align  4
    2038 0000003e 00000000! ||$C$CON36||:   .bits   g_sContext,32
         00000042 00000000 
    2039                            .align  4
    2040 00000042 00000000! ||$C$CON37||:   .bits   happy34BPP_UNCOMP,32
         00000046 00000000 
    2041                            .align  4
    2042 00000046 00000000! ||$C$CON38||:   .bits   happy24BPP_UNCOMP,32
         0000004a 00000000 
    2043                            .align  4
    2044 0000004a 00000000! ||$C$CON40||:   .bits   happy14BPP_UNCOMP,32
         0000004e 00000000 
    2045                    ;*****************************************************************************
    2046                    ;* UNDEFINED EXTERNAL REFERENCES                                             *
    2047                    ;*****************************************************************************
    2048                            .global CS_setDCOCenteredFrequency
    2049                            .global Graphics_initContext
    2050                            .global Graphics_drawImage
    2051                            .global Graphics_drawString
    2052                            .global Graphics_setBackgroundColor
    2053                            .global Graphics_setFont
    2054                            .global Graphics_setForegroundColor
    2055                            .global Graphics_drawStringCentered
    2056                            .global Graphics_clearDisplay
    2057                            .global Crystalfontz128x128_Init
    2058                            .global Crystalfontz128x128_SetOrientation
    2059                            .global sprintf
    2060                            .global g_sFontFixed6x8
    2061                            .global g_sCrystalfontz128x128
    2062                            .global g_sCrystalfontz128x128_funcs
    2063                            .global eat14BPP_UNCOMP
    2064                            .global happy14BPP_UNCOMP
    2065                            .global happy24BPP_UNCOMP
    2066                            .global happy34BPP_UNCOMP
    2067                            .global normal14BPP_UNCOMP
    2068                            .global unhappy14BPP_UNCOMP
    2069                            .global walk14BPP_UNCOMP
    2070                            .global play14BPP_UNCOMP
    2071                    
    2072                    ;******************************************************************************
    2073                    ;* BUILD ATTRIBUTES                                                           *
    2074                    ;******************************************************************************
    2075                            .battr "aeabi", Tag_File, 1, Tag_ABI_PCS_wchar_t(2)
    2076                            .battr "aeabi", Tag_File, 1, Tag_ABI_FP_rounding(0)
TI ARM Assembler Unix v16.9.0 Sat Apr 29 13:25:12 2017

Tools Copyright (c) 1996-2015 Texas Instruments Incorporated
main.asm                                                             PAGE   40

    2077                            .battr "aeabi", Tag_File, 1, Tag_ABI_FP_denormal(0)
    2078                            .battr "aeabi", Tag_File, 1, Tag_ABI_FP_exceptions(0)
    2079                            .battr "aeabi", Tag_File, 1, Tag_ABI_FP_number_model(1)
    2080                            .battr "aeabi", Tag_File, 1, Tag_ABI_enum_size(1)
    2081                            .battr "aeabi", Tag_File, 1, Tag_ABI_optimization_goals(4)
    2082                            .battr "aeabi", Tag_File, 1, Tag_ABI_FP_optimization_goals(0)
    2083                            .battr "TI", Tag_File, 1, Tag_Bitfield_layout(0)
    2084                            .battr "aeabi", Tag_File, 1, Tag_ABI_VFP_args(3)
    2085                            .battr "TI", Tag_File, 1, Tag_FP_interface(1)
    2086                    
    2087                    ;******************************************************************************
    2088                    ;* TYPE INFORMATION                                                           *
    2089                    ;******************************************************************************
    2090                    
    2091                    $C$DW$T$25      .dwtag  DW_TAG_structure_type
    2092                            .dwattr $C$DW$T$25, DW_AT_byte_size(0x1e)
    2093                    $C$DW$111       .dwtag  DW_TAG_member
    2094                            .dwattr $C$DW$111, DW_AT_type(*$C$DW$T$20)
    2095                            .dwattr $C$DW$111, DW_AT_name("IN")
    2096                            .dwattr $C$DW$111, DW_AT_TI_symbol_name("IN")
    2097                            .dwattr $C$DW$111, DW_AT_data_member_location[DW_OP_plus_uconst 0x0]
    2098                            .dwattr $C$DW$111, DW_AT_accessibility(DW_ACCESS_public)
    2099                            .dwattr $C$DW$111, DW_AT_decl_file("/Users/jadedh/ti/tirex-content/simplelink_msp432_sdk_1_20_
    2100                            .dwattr $C$DW$111, DW_AT_decl_line(0x27b)
    2101                            .dwattr $C$DW$111, DW_AT_decl_column(0x0f)
    2102                    
    2103                    $C$DW$112       .dwtag  DW_TAG_member
    2104                            .dwattr $C$DW$112, DW_AT_type(*$C$DW$T$19)
    2105                            .dwattr $C$DW$112, DW_AT_name("RESERVED0")
    2106                            .dwattr $C$DW$112, DW_AT_TI_symbol_name("RESERVED0")
    2107                            .dwattr $C$DW$112, DW_AT_data_member_location[DW_OP_plus_uconst 0x1]
    2108                            .dwattr $C$DW$112, DW_AT_accessibility(DW_ACCESS_public)
    2109                            .dwattr $C$DW$112, DW_AT_decl_file("/Users/jadedh/ti/tirex-content/simplelink_msp432_sdk_1_20_
    2110                            .dwattr $C$DW$112, DW_AT_decl_line(0x27c)
    2111                            .dwattr $C$DW$112, DW_AT_decl_column(0x0b)
    2112                    
    2113                    $C$DW$113       .dwtag  DW_TAG_member
    2114                            .dwattr $C$DW$113, DW_AT_type(*$C$DW$T$21)
    2115                            .dwattr $C$DW$113, DW_AT_name("OUT")
    2116                            .dwattr $C$DW$113, DW_AT_TI_symbol_name("OUT")
    2117                            .dwattr $C$DW$113, DW_AT_data_member_location[DW_OP_plus_uconst 0x2]
    2118                            .dwattr $C$DW$113, DW_AT_accessibility(DW_ACCESS_public)
    2119                            .dwattr $C$DW$113, DW_AT_decl_file("/Users/jadedh/ti/tirex-content/simplelink_msp432_sdk_1_20_
    2120                            .dwattr $C$DW$113, DW_AT_decl_line(0x27d)
    2121                            .dwattr $C$DW$113, DW_AT_decl_column(0x10)
    2122                    
    2123                    $C$DW$114       .dwtag  DW_TAG_member
    2124                            .dwattr $C$DW$114, DW_AT_type(*$C$DW$T$19)
    2125                            .dwattr $C$DW$114, DW_AT_name("RESERVED1")
    2126                            .dwattr $C$DW$114, DW_AT_TI_symbol_name("RESERVED1")
    2127                            .dwattr $C$DW$114, DW_AT_data_member_location[DW_OP_plus_uconst 0x3]
    2128                            .dwattr $C$DW$114, DW_AT_accessibility(DW_ACCESS_public)
    2129                            .dwattr $C$DW$114, DW_AT_decl_file("/Users/jadedh/ti/tirex-content/simplelink_msp432_sdk_1_20_
    2130                            .dwattr $C$DW$114, DW_AT_decl_line(0x27e)
    2131                            .dwattr $C$DW$114, DW_AT_decl_column(0x0b)
TI ARM Assembler Unix v16.9.0 Sat Apr 29 13:25:12 2017

Tools Copyright (c) 1996-2015 Texas Instruments Incorporated
main.asm                                                             PAGE   41

    2132                    
    2133                    $C$DW$115       .dwtag  DW_TAG_member
    2134                            .dwattr $C$DW$115, DW_AT_type(*$C$DW$T$21)
    2135                            .dwattr $C$DW$115, DW_AT_name("DIR")
    2136                            .dwattr $C$DW$115, DW_AT_TI_symbol_name("DIR")
    2137                            .dwattr $C$DW$115, DW_AT_data_member_location[DW_OP_plus_uconst 0x4]
    2138                            .dwattr $C$DW$115, DW_AT_accessibility(DW_ACCESS_public)
    2139                            .dwattr $C$DW$115, DW_AT_decl_file("/Users/jadedh/ti/tirex-content/simplelink_msp432_sdk_1_20_
    2140                            .dwattr $C$DW$115, DW_AT_decl_line(0x27f)
    2141                            .dwattr $C$DW$115, DW_AT_decl_column(0x10)
    2142                    
    2143                    $C$DW$116       .dwtag  DW_TAG_member
    2144                            .dwattr $C$DW$116, DW_AT_type(*$C$DW$T$19)
    2145                            .dwattr $C$DW$116, DW_AT_name("RESERVED2")
    2146                            .dwattr $C$DW$116, DW_AT_TI_symbol_name("RESERVED2")
    2147                            .dwattr $C$DW$116, DW_AT_data_member_location[DW_OP_plus_uconst 0x5]
    2148                            .dwattr $C$DW$116, DW_AT_accessibility(DW_ACCESS_public)
    2149                            .dwattr $C$DW$116, DW_AT_decl_file("/Users/jadedh/ti/tirex-content/simplelink_msp432_sdk_1_20_
    2150                            .dwattr $C$DW$116, DW_AT_decl_line(0x280)
    2151                            .dwattr $C$DW$116, DW_AT_decl_column(0x0b)
    2152                    
    2153                    $C$DW$117       .dwtag  DW_TAG_member
    2154                            .dwattr $C$DW$117, DW_AT_type(*$C$DW$T$21)
    2155                            .dwattr $C$DW$117, DW_AT_name("REN")
    2156                            .dwattr $C$DW$117, DW_AT_TI_symbol_name("REN")
    2157                            .dwattr $C$DW$117, DW_AT_data_member_location[DW_OP_plus_uconst 0x6]
    2158                            .dwattr $C$DW$117, DW_AT_accessibility(DW_ACCESS_public)
    2159                            .dwattr $C$DW$117, DW_AT_decl_file("/Users/jadedh/ti/tirex-content/simplelink_msp432_sdk_1_20_
    2160                            .dwattr $C$DW$117, DW_AT_decl_line(0x281)
    2161                            .dwattr $C$DW$117, DW_AT_decl_column(0x10)
    2162                    
    2163                    $C$DW$118       .dwtag  DW_TAG_member
    2164                            .dwattr $C$DW$118, DW_AT_type(*$C$DW$T$19)
    2165                            .dwattr $C$DW$118, DW_AT_name("RESERVED3")
    2166                            .dwattr $C$DW$118, DW_AT_TI_symbol_name("RESERVED3")
    2167                            .dwattr $C$DW$118, DW_AT_data_member_location[DW_OP_plus_uconst 0x7]
    2168                            .dwattr $C$DW$118, DW_AT_accessibility(DW_ACCESS_public)
    2169                            .dwattr $C$DW$118, DW_AT_decl_file("/Users/jadedh/ti/tirex-content/simplelink_msp432_sdk_1_20_
    2170                            .dwattr $C$DW$118, DW_AT_decl_line(0x282)
    2171                            .dwattr $C$DW$118, DW_AT_decl_column(0x0b)
    2172                    
    2173                    $C$DW$119       .dwtag  DW_TAG_member
    2174                            .dwattr $C$DW$119, DW_AT_type(*$C$DW$T$21)
    2175                            .dwattr $C$DW$119, DW_AT_name("DS")
    2176                            .dwattr $C$DW$119, DW_AT_TI_symbol_name("DS")
    2177                            .dwattr $C$DW$119, DW_AT_data_member_location[DW_OP_plus_uconst 0x8]
    2178                            .dwattr $C$DW$119, DW_AT_accessibility(DW_ACCESS_public)
    2179                            .dwattr $C$DW$119, DW_AT_decl_file("/Users/jadedh/ti/tirex-content/simplelink_msp432_sdk_1_20_
    2180                            .dwattr $C$DW$119, DW_AT_decl_line(0x283)
    2181                            .dwattr $C$DW$119, DW_AT_decl_column(0x10)
    2182                    
    2183                    $C$DW$120       .dwtag  DW_TAG_member
    2184                            .dwattr $C$DW$120, DW_AT_type(*$C$DW$T$19)
    2185                            .dwattr $C$DW$120, DW_AT_name("RESERVED4")
    2186                            .dwattr $C$DW$120, DW_AT_TI_symbol_name("RESERVED4")
TI ARM Assembler Unix v16.9.0 Sat Apr 29 13:25:12 2017

Tools Copyright (c) 1996-2015 Texas Instruments Incorporated
main.asm                                                             PAGE   42

    2187                            .dwattr $C$DW$120, DW_AT_data_member_location[DW_OP_plus_uconst 0x9]
    2188                            .dwattr $C$DW$120, DW_AT_accessibility(DW_ACCESS_public)
    2189                            .dwattr $C$DW$120, DW_AT_decl_file("/Users/jadedh/ti/tirex-content/simplelink_msp432_sdk_1_20_
    2190                            .dwattr $C$DW$120, DW_AT_decl_line(0x284)
    2191                            .dwattr $C$DW$120, DW_AT_decl_column(0x0b)
    2192                    
    2193                    $C$DW$121       .dwtag  DW_TAG_member
    2194                            .dwattr $C$DW$121, DW_AT_type(*$C$DW$T$21)
    2195                            .dwattr $C$DW$121, DW_AT_name("SEL0")
    2196                            .dwattr $C$DW$121, DW_AT_TI_symbol_name("SEL0")
    2197                            .dwattr $C$DW$121, DW_AT_data_member_location[DW_OP_plus_uconst 0xa]
    2198                            .dwattr $C$DW$121, DW_AT_accessibility(DW_ACCESS_public)
    2199                            .dwattr $C$DW$121, DW_AT_decl_file("/Users/jadedh/ti/tirex-content/simplelink_msp432_sdk_1_20_
    2200                            .dwattr $C$DW$121, DW_AT_decl_line(0x285)
    2201                            .dwattr $C$DW$121, DW_AT_decl_column(0x10)
    2202                    
    2203                    $C$DW$122       .dwtag  DW_TAG_member
    2204                            .dwattr $C$DW$122, DW_AT_type(*$C$DW$T$19)
    2205                            .dwattr $C$DW$122, DW_AT_name("RESERVED5")
    2206                            .dwattr $C$DW$122, DW_AT_TI_symbol_name("RESERVED5")
    2207                            .dwattr $C$DW$122, DW_AT_data_member_location[DW_OP_plus_uconst 0xb]
    2208                            .dwattr $C$DW$122, DW_AT_accessibility(DW_ACCESS_public)
    2209                            .dwattr $C$DW$122, DW_AT_decl_file("/Users/jadedh/ti/tirex-content/simplelink_msp432_sdk_1_20_
    2210                            .dwattr $C$DW$122, DW_AT_decl_line(0x286)
    2211                            .dwattr $C$DW$122, DW_AT_decl_column(0x0b)
    2212                    
    2213                    $C$DW$123       .dwtag  DW_TAG_member
    2214                            .dwattr $C$DW$123, DW_AT_type(*$C$DW$T$21)
    2215                            .dwattr $C$DW$123, DW_AT_name("SEL1")
    2216                            .dwattr $C$DW$123, DW_AT_TI_symbol_name("SEL1")
    2217                            .dwattr $C$DW$123, DW_AT_data_member_location[DW_OP_plus_uconst 0xc]
    2218                            .dwattr $C$DW$123, DW_AT_accessibility(DW_ACCESS_public)
    2219                            .dwattr $C$DW$123, DW_AT_decl_file("/Users/jadedh/ti/tirex-content/simplelink_msp432_sdk_1_20_
    2220                            .dwattr $C$DW$123, DW_AT_decl_line(0x287)
    2221                            .dwattr $C$DW$123, DW_AT_decl_column(0x10)
    2222                    
    2223                    $C$DW$124       .dwtag  DW_TAG_member
    2224                            .dwattr $C$DW$124, DW_AT_type(*$C$DW$T$19)
    2225                            .dwattr $C$DW$124, DW_AT_name("RESERVED6")
    2226                            .dwattr $C$DW$124, DW_AT_TI_symbol_name("RESERVED6")
    2227                            .dwattr $C$DW$124, DW_AT_data_member_location[DW_OP_plus_uconst 0xd]
    2228                            .dwattr $C$DW$124, DW_AT_accessibility(DW_ACCESS_public)
    2229                            .dwattr $C$DW$124, DW_AT_decl_file("/Users/jadedh/ti/tirex-content/simplelink_msp432_sdk_1_20_
    2230                            .dwattr $C$DW$124, DW_AT_decl_line(0x288)
    2231                            .dwattr $C$DW$124, DW_AT_decl_column(0x0b)
    2232                    
    2233                    $C$DW$125       .dwtag  DW_TAG_member
    2234                            .dwattr $C$DW$125, DW_AT_type(*$C$DW$T$23)
    2235                            .dwattr $C$DW$125, DW_AT_name("IV")
    2236                            .dwattr $C$DW$125, DW_AT_TI_symbol_name("IV")
    2237                            .dwattr $C$DW$125, DW_AT_data_member_location[DW_OP_plus_uconst 0xe]
    2238                            .dwattr $C$DW$125, DW_AT_accessibility(DW_ACCESS_public)
    2239                            .dwattr $C$DW$125, DW_AT_decl_file("/Users/jadedh/ti/tirex-content/simplelink_msp432_sdk_1_20_
    2240                            .dwattr $C$DW$125, DW_AT_decl_line(0x289)
    2241                            .dwattr $C$DW$125, DW_AT_decl_column(0x11)
TI ARM Assembler Unix v16.9.0 Sat Apr 29 13:25:12 2017

Tools Copyright (c) 1996-2015 Texas Instruments Incorporated
main.asm                                                             PAGE   43

    2242                    
    2243                    $C$DW$126       .dwtag  DW_TAG_member
    2244                            .dwattr $C$DW$126, DW_AT_type(*$C$DW$T$24)
    2245                            .dwattr $C$DW$126, DW_AT_name("RESERVED7")
    2246                            .dwattr $C$DW$126, DW_AT_TI_symbol_name("RESERVED7")
    2247                            .dwattr $C$DW$126, DW_AT_data_member_location[DW_OP_plus_uconst 0x10]
    2248                            .dwattr $C$DW$126, DW_AT_accessibility(DW_ACCESS_public)
    2249                            .dwattr $C$DW$126, DW_AT_decl_file("/Users/jadedh/ti/tirex-content/simplelink_msp432_sdk_1_20_
    2250                            .dwattr $C$DW$126, DW_AT_decl_line(0x28a)
    2251                            .dwattr $C$DW$126, DW_AT_decl_column(0x0b)
    2252                    
    2253                    $C$DW$127       .dwtag  DW_TAG_member
    2254                            .dwattr $C$DW$127, DW_AT_type(*$C$DW$T$21)
    2255                            .dwattr $C$DW$127, DW_AT_name("SELC")
    2256                            .dwattr $C$DW$127, DW_AT_TI_symbol_name("SELC")
    2257                            .dwattr $C$DW$127, DW_AT_data_member_location[DW_OP_plus_uconst 0x16]
    2258                            .dwattr $C$DW$127, DW_AT_accessibility(DW_ACCESS_public)
    2259                            .dwattr $C$DW$127, DW_AT_decl_file("/Users/jadedh/ti/tirex-content/simplelink_msp432_sdk_1_20_
    2260                            .dwattr $C$DW$127, DW_AT_decl_line(0x28b)
    2261                            .dwattr $C$DW$127, DW_AT_decl_column(0x10)
    2262                    
    2263                    $C$DW$128       .dwtag  DW_TAG_member
    2264                            .dwattr $C$DW$128, DW_AT_type(*$C$DW$T$19)
    2265                            .dwattr $C$DW$128, DW_AT_name("RESERVED8")
    2266                            .dwattr $C$DW$128, DW_AT_TI_symbol_name("RESERVED8")
    2267                            .dwattr $C$DW$128, DW_AT_data_member_location[DW_OP_plus_uconst 0x17]
    2268                            .dwattr $C$DW$128, DW_AT_accessibility(DW_ACCESS_public)
    2269                            .dwattr $C$DW$128, DW_AT_decl_file("/Users/jadedh/ti/tirex-content/simplelink_msp432_sdk_1_20_
    2270                            .dwattr $C$DW$128, DW_AT_decl_line(0x28c)
    2271                            .dwattr $C$DW$128, DW_AT_decl_column(0x0b)
    2272                    
    2273                    $C$DW$129       .dwtag  DW_TAG_member
    2274                            .dwattr $C$DW$129, DW_AT_type(*$C$DW$T$21)
    2275                            .dwattr $C$DW$129, DW_AT_name("IES")
    2276                            .dwattr $C$DW$129, DW_AT_TI_symbol_name("IES")
    2277                            .dwattr $C$DW$129, DW_AT_data_member_location[DW_OP_plus_uconst 0x18]
    2278                            .dwattr $C$DW$129, DW_AT_accessibility(DW_ACCESS_public)
    2279                            .dwattr $C$DW$129, DW_AT_decl_file("/Users/jadedh/ti/tirex-content/simplelink_msp432_sdk_1_20_
    2280                            .dwattr $C$DW$129, DW_AT_decl_line(0x28d)
    2281                            .dwattr $C$DW$129, DW_AT_decl_column(0x10)
    2282                    
    2283                    $C$DW$130       .dwtag  DW_TAG_member
    2284                            .dwattr $C$DW$130, DW_AT_type(*$C$DW$T$19)
    2285                            .dwattr $C$DW$130, DW_AT_name("RESERVED9")
    2286                            .dwattr $C$DW$130, DW_AT_TI_symbol_name("RESERVED9")
    2287                            .dwattr $C$DW$130, DW_AT_data_member_location[DW_OP_plus_uconst 0x19]
    2288                            .dwattr $C$DW$130, DW_AT_accessibility(DW_ACCESS_public)
    2289                            .dwattr $C$DW$130, DW_AT_decl_file("/Users/jadedh/ti/tirex-content/simplelink_msp432_sdk_1_20_
    2290                            .dwattr $C$DW$130, DW_AT_decl_line(0x28e)
    2291                            .dwattr $C$DW$130, DW_AT_decl_column(0x0b)
    2292                    
    2293                    $C$DW$131       .dwtag  DW_TAG_member
    2294                            .dwattr $C$DW$131, DW_AT_type(*$C$DW$T$21)
    2295                            .dwattr $C$DW$131, DW_AT_name("IE")
    2296                            .dwattr $C$DW$131, DW_AT_TI_symbol_name("IE")
TI ARM Assembler Unix v16.9.0 Sat Apr 29 13:25:12 2017

Tools Copyright (c) 1996-2015 Texas Instruments Incorporated
main.asm                                                             PAGE   44

    2297                            .dwattr $C$DW$131, DW_AT_data_member_location[DW_OP_plus_uconst 0x1a]
    2298                            .dwattr $C$DW$131, DW_AT_accessibility(DW_ACCESS_public)
    2299                            .dwattr $C$DW$131, DW_AT_decl_file("/Users/jadedh/ti/tirex-content/simplelink_msp432_sdk_1_20_
    2300                            .dwattr $C$DW$131, DW_AT_decl_line(0x28f)
    2301                            .dwattr $C$DW$131, DW_AT_decl_column(0x10)
    2302                    
    2303                    $C$DW$132       .dwtag  DW_TAG_member
    2304                            .dwattr $C$DW$132, DW_AT_type(*$C$DW$T$19)
    2305                            .dwattr $C$DW$132, DW_AT_name("RESERVED10")
    2306                            .dwattr $C$DW$132, DW_AT_TI_symbol_name("RESERVED10")
    2307                            .dwattr $C$DW$132, DW_AT_data_member_location[DW_OP_plus_uconst 0x1b]
    2308                            .dwattr $C$DW$132, DW_AT_accessibility(DW_ACCESS_public)
    2309                            .dwattr $C$DW$132, DW_AT_decl_file("/Users/jadedh/ti/tirex-content/simplelink_msp432_sdk_1_20_
    2310                            .dwattr $C$DW$132, DW_AT_decl_line(0x290)
    2311                            .dwattr $C$DW$132, DW_AT_decl_column(0x0b)
    2312                    
    2313                    $C$DW$133       .dwtag  DW_TAG_member
    2314                            .dwattr $C$DW$133, DW_AT_type(*$C$DW$T$21)
    2315                            .dwattr $C$DW$133, DW_AT_name("IFG")
    2316                            .dwattr $C$DW$133, DW_AT_TI_symbol_name("IFG")
    2317                            .dwattr $C$DW$133, DW_AT_data_member_location[DW_OP_plus_uconst 0x1c]
    2318                            .dwattr $C$DW$133, DW_AT_accessibility(DW_ACCESS_public)
    2319                            .dwattr $C$DW$133, DW_AT_decl_file("/Users/jadedh/ti/tirex-content/simplelink_msp432_sdk_1_20_
    2320                            .dwattr $C$DW$133, DW_AT_decl_line(0x291)
    2321                            .dwattr $C$DW$133, DW_AT_decl_column(0x10)
    2322                    
    2323                            .dwattr $C$DW$T$25, DW_AT_decl_file("/Users/jadedh/ti/tirex-content/simplelink_msp432_sdk_1_20
    2324                            .dwattr $C$DW$T$25, DW_AT_decl_line(0x27a)
    2325                            .dwattr $C$DW$T$25, DW_AT_decl_column(0x10)
    2326                            .dwendtag $C$DW$T$25
    2327                    
    2328                    $C$DW$T$242     .dwtag  DW_TAG_typedef
    2329                            .dwattr $C$DW$T$242, DW_AT_name("DIO_PORT_Odd_Interruptable_Type")
    2330                            .dwattr $C$DW$T$242, DW_AT_type(*$C$DW$T$25)
    2331                            .dwattr $C$DW$T$242, DW_AT_language(DW_LANG_C)
    2332                            .dwattr $C$DW$T$242, DW_AT_decl_file("/Users/jadedh/ti/tirex-content/simplelink_msp432_sdk_1_2
    2333                            .dwattr $C$DW$T$242, DW_AT_decl_line(0x292)
    2334                            .dwattr $C$DW$T$242, DW_AT_decl_column(0x03)
    2335                    
    2336                    
    2337                    $C$DW$T$27      .dwtag  DW_TAG_structure_type
    2338                            .dwattr $C$DW$T$27, DW_AT_byte_size(0x04)
    2339                    $C$DW$134       .dwtag  DW_TAG_member
    2340                            .dwattr $C$DW$134, DW_AT_type(*$C$DW$T$26)
    2341                            .dwattr $C$DW$134, DW_AT_name("KEYID")
    2342                            .dwattr $C$DW$134, DW_AT_TI_symbol_name("KEYID")
    2343                            .dwattr $C$DW$134, DW_AT_data_member_location[DW_OP_plus_uconst 0x0]
    2344                            .dwattr $C$DW$134, DW_AT_accessibility(DW_ACCESS_public)
    2345                            .dwattr $C$DW$134, DW_AT_decl_file("/Users/jadedh/ti/tirex-content/simplelink_msp432_sdk_1_20_
    2346                            .dwattr $C$DW$134, DW_AT_decl_line(0x3e5)
    2347                            .dwattr $C$DW$134, DW_AT_decl_column(0x11)
    2348                    
    2349                    $C$DW$135       .dwtag  DW_TAG_member
    2350                            .dwattr $C$DW$135, DW_AT_type(*$C$DW$T$26)
    2351                            .dwattr $C$DW$135, DW_AT_name("CTL")
TI ARM Assembler Unix v16.9.0 Sat Apr 29 13:25:12 2017

Tools Copyright (c) 1996-2015 Texas Instruments Incorporated
main.asm                                                             PAGE   45

    2352                            .dwattr $C$DW$135, DW_AT_TI_symbol_name("CTL")
    2353                            .dwattr $C$DW$135, DW_AT_data_member_location[DW_OP_plus_uconst 0x2]
    2354                            .dwattr $C$DW$135, DW_AT_accessibility(DW_ACCESS_public)
    2355                            .dwattr $C$DW$135, DW_AT_decl_file("/Users/jadedh/ti/tirex-content/simplelink_msp432_sdk_1_20_
    2356                            .dwattr $C$DW$135, DW_AT_decl_line(0x3e6)
    2357                            .dwattr $C$DW$135, DW_AT_decl_column(0x11)
    2358                    
    2359                            .dwattr $C$DW$T$27, DW_AT_decl_file("/Users/jadedh/ti/tirex-content/simplelink_msp432_sdk_1_20
    2360                            .dwattr $C$DW$T$27, DW_AT_decl_line(0x3e4)
    2361                            .dwattr $C$DW$T$27, DW_AT_decl_column(0x10)
    2362                            .dwendtag $C$DW$T$27
    2363                    
    2364                    $C$DW$T$244     .dwtag  DW_TAG_typedef
    2365                            .dwattr $C$DW$T$244, DW_AT_name("PMAP_COMMON_Type")
    2366                            .dwattr $C$DW$T$244, DW_AT_type(*$C$DW$T$27)
    2367                            .dwattr $C$DW$T$244, DW_AT_language(DW_LANG_C)
    2368                            .dwattr $C$DW$T$244, DW_AT_decl_file("/Users/jadedh/ti/tirex-content/simplelink_msp432_sdk_1_2
    2369                            .dwattr $C$DW$T$244, DW_AT_decl_line(0x3e7)
    2370                            .dwattr $C$DW$T$244, DW_AT_decl_column(0x03)
    2371                    
    2372                    
    2373                    $C$DW$T$28      .dwtag  DW_TAG_structure_type
    2374                            .dwattr $C$DW$T$28, DW_AT_byte_size(0x08)
    2375                    $C$DW$136       .dwtag  DW_TAG_member
    2376                            .dwattr $C$DW$136, DW_AT_type(*$C$DW$T$21)
    2377                            .dwattr $C$DW$136, DW_AT_name("PMAP_REGISTER0")
    2378                            .dwattr $C$DW$136, DW_AT_TI_symbol_name("PMAP_REGISTER0")
    2379                            .dwattr $C$DW$136, DW_AT_data_member_location[DW_OP_plus_uconst 0x0]
    2380                            .dwattr $C$DW$136, DW_AT_accessibility(DW_ACCESS_public)
    2381                            .dwattr $C$DW$136, DW_AT_decl_file("/Users/jadedh/ti/tirex-content/simplelink_msp432_sdk_1_20_
    2382                            .dwattr $C$DW$136, DW_AT_decl_line(0x3ed)
    2383                            .dwattr $C$DW$136, DW_AT_decl_column(0x14)
    2384                    
    2385                    $C$DW$137       .dwtag  DW_TAG_member
    2386                            .dwattr $C$DW$137, DW_AT_type(*$C$DW$T$21)
    2387                            .dwattr $C$DW$137, DW_AT_name("PMAP_REGISTER1")
    2388                            .dwattr $C$DW$137, DW_AT_TI_symbol_name("PMAP_REGISTER1")
    2389                            .dwattr $C$DW$137, DW_AT_data_member_location[DW_OP_plus_uconst 0x1]
    2390                            .dwattr $C$DW$137, DW_AT_accessibility(DW_ACCESS_public)
    2391                            .dwattr $C$DW$137, DW_AT_decl_file("/Users/jadedh/ti/tirex-content/simplelink_msp432_sdk_1_20_
    2392                            .dwattr $C$DW$137, DW_AT_decl_line(0x3ee)
    2393                            .dwattr $C$DW$137, DW_AT_decl_column(0x14)
    2394                    
    2395                    $C$DW$138       .dwtag  DW_TAG_member
    2396                            .dwattr $C$DW$138, DW_AT_type(*$C$DW$T$21)
    2397                            .dwattr $C$DW$138, DW_AT_name("PMAP_REGISTER2")
    2398                            .dwattr $C$DW$138, DW_AT_TI_symbol_name("PMAP_REGISTER2")
    2399                            .dwattr $C$DW$138, DW_AT_data_member_location[DW_OP_plus_uconst 0x2]
    2400                            .dwattr $C$DW$138, DW_AT_accessibility(DW_ACCESS_public)
    2401                            .dwattr $C$DW$138, DW_AT_decl_file("/Users/jadedh/ti/tirex-content/simplelink_msp432_sdk_1_20_
    2402                            .dwattr $C$DW$138, DW_AT_decl_line(0x3ef)
    2403                            .dwattr $C$DW$138, DW_AT_decl_column(0x14)
    2404                    
    2405                    $C$DW$139       .dwtag  DW_TAG_member
    2406                            .dwattr $C$DW$139, DW_AT_type(*$C$DW$T$21)
TI ARM Assembler Unix v16.9.0 Sat Apr 29 13:25:12 2017

Tools Copyright (c) 1996-2015 Texas Instruments Incorporated
main.asm                                                             PAGE   46

    2407                            .dwattr $C$DW$139, DW_AT_name("PMAP_REGISTER3")
    2408                            .dwattr $C$DW$139, DW_AT_TI_symbol_name("PMAP_REGISTER3")
    2409                            .dwattr $C$DW$139, DW_AT_data_member_location[DW_OP_plus_uconst 0x3]
    2410                            .dwattr $C$DW$139, DW_AT_accessibility(DW_ACCESS_public)
    2411                            .dwattr $C$DW$139, DW_AT_decl_file("/Users/jadedh/ti/tirex-content/simplelink_msp432_sdk_1_20_
    2412                            .dwattr $C$DW$139, DW_AT_decl_line(0x3f0)
    2413                            .dwattr $C$DW$139, DW_AT_decl_column(0x14)
    2414                    
    2415                    $C$DW$140       .dwtag  DW_TAG_member
    2416                            .dwattr $C$DW$140, DW_AT_type(*$C$DW$T$21)
    2417                            .dwattr $C$DW$140, DW_AT_name("PMAP_REGISTER4")
    2418                            .dwattr $C$DW$140, DW_AT_TI_symbol_name("PMAP_REGISTER4")
    2419                            .dwattr $C$DW$140, DW_AT_data_member_location[DW_OP_plus_uconst 0x4]
    2420                            .dwattr $C$DW$140, DW_AT_accessibility(DW_ACCESS_public)
    2421                            .dwattr $C$DW$140, DW_AT_decl_file("/Users/jadedh/ti/tirex-content/simplelink_msp432_sdk_1_20_
    2422                            .dwattr $C$DW$140, DW_AT_decl_line(0x3f1)
    2423                            .dwattr $C$DW$140, DW_AT_decl_column(0x14)
    2424                    
    2425                    $C$DW$141       .dwtag  DW_TAG_member
    2426                            .dwattr $C$DW$141, DW_AT_type(*$C$DW$T$21)
    2427                            .dwattr $C$DW$141, DW_AT_name("PMAP_REGISTER5")
    2428                            .dwattr $C$DW$141, DW_AT_TI_symbol_name("PMAP_REGISTER5")
    2429                            .dwattr $C$DW$141, DW_AT_data_member_location[DW_OP_plus_uconst 0x5]
    2430                            .dwattr $C$DW$141, DW_AT_accessibility(DW_ACCESS_public)
    2431                            .dwattr $C$DW$141, DW_AT_decl_file("/Users/jadedh/ti/tirex-content/simplelink_msp432_sdk_1_20_
    2432                            .dwattr $C$DW$141, DW_AT_decl_line(0x3f2)
    2433                            .dwattr $C$DW$141, DW_AT_decl_column(0x14)
    2434                    
    2435                    $C$DW$142       .dwtag  DW_TAG_member
    2436                            .dwattr $C$DW$142, DW_AT_type(*$C$DW$T$21)
    2437                            .dwattr $C$DW$142, DW_AT_name("PMAP_REGISTER6")
    2438                            .dwattr $C$DW$142, DW_AT_TI_symbol_name("PMAP_REGISTER6")
    2439                            .dwattr $C$DW$142, DW_AT_data_member_location[DW_OP_plus_uconst 0x6]
    2440                            .dwattr $C$DW$142, DW_AT_accessibility(DW_ACCESS_public)
    2441                            .dwattr $C$DW$142, DW_AT_decl_file("/Users/jadedh/ti/tirex-content/simplelink_msp432_sdk_1_20_
    2442                            .dwattr $C$DW$142, DW_AT_decl_line(0x3f3)
    2443                            .dwattr $C$DW$142, DW_AT_decl_column(0x14)
    2444                    
    2445                    $C$DW$143       .dwtag  DW_TAG_member
    2446                            .dwattr $C$DW$143, DW_AT_type(*$C$DW$T$21)
    2447                            .dwattr $C$DW$143, DW_AT_name("PMAP_REGISTER7")
    2448                            .dwattr $C$DW$143, DW_AT_TI_symbol_name("PMAP_REGISTER7")
    2449                            .dwattr $C$DW$143, DW_AT_data_member_location[DW_OP_plus_uconst 0x7]
    2450                            .dwattr $C$DW$143, DW_AT_accessibility(DW_ACCESS_public)
    2451                            .dwattr $C$DW$143, DW_AT_decl_file("/Users/jadedh/ti/tirex-content/simplelink_msp432_sdk_1_20_
    2452                            .dwattr $C$DW$143, DW_AT_decl_line(0x3f4)
    2453                            .dwattr $C$DW$143, DW_AT_decl_column(0x14)
    2454                    
    2455                            .dwattr $C$DW$T$28, DW_AT_decl_file("/Users/jadedh/ti/tirex-content/simplelink_msp432_sdk_1_20
    2456                            .dwattr $C$DW$T$28, DW_AT_decl_line(0x3ec)
    2457                            .dwattr $C$DW$T$28, DW_AT_decl_column(0x0c)
    2458                            .dwendtag $C$DW$T$28
    2459                    
    2460                    
    2461                    $C$DW$T$29      .dwtag  DW_TAG_structure_type
TI ARM Assembler Unix v16.9.0 Sat Apr 29 13:25:12 2017

Tools Copyright (c) 1996-2015 Texas Instruments Incorporated
main.asm                                                             PAGE   47

    2462                            .dwattr $C$DW$T$29, DW_AT_byte_size(0x08)
    2463                    $C$DW$144       .dwtag  DW_TAG_member
    2464                            .dwattr $C$DW$144, DW_AT_type(*$C$DW$T$152)
    2465                            .dwattr $C$DW$144, DW_AT_name("$P$T1")
    2466                            .dwattr $C$DW$144, DW_AT_TI_symbol_name("$P$T1")
    2467                            .dwattr $C$DW$144, DW_AT_data_member_location[DW_OP_plus_uconst 0x0]
    2468                            .dwattr $C$DW$144, DW_AT_accessibility(DW_ACCESS_public)
    2469                            .dwattr $C$DW$144, DW_AT_decl_file("/Users/jadedh/ti/tirex-content/simplelink_msp432_sdk_1_20_
    2470                            .dwattr $C$DW$144, DW_AT_decl_line(0x3ea)
    2471                            .dwattr $C$DW$144, DW_AT_decl_column(0x03)
    2472                    
    2473                            .dwattr $C$DW$T$29, DW_AT_decl_file("/Users/jadedh/ti/tirex-content/simplelink_msp432_sdk_1_20
    2474                            .dwattr $C$DW$T$29, DW_AT_decl_line(0x3e9)
    2475                            .dwattr $C$DW$T$29, DW_AT_decl_column(0x10)
    2476                            .dwendtag $C$DW$T$29
    2477                    
    2478                    $C$DW$T$246     .dwtag  DW_TAG_typedef
    2479                            .dwattr $C$DW$T$246, DW_AT_name("PMAP_REGISTER_Type")
    2480                            .dwattr $C$DW$T$246, DW_AT_type(*$C$DW$T$29)
    2481                            .dwattr $C$DW$T$246, DW_AT_language(DW_LANG_C)
    2482                            .dwattr $C$DW$T$246, DW_AT_decl_file("/Users/jadedh/ti/tirex-content/simplelink_msp432_sdk_1_2
    2483                            .dwattr $C$DW$T$246, DW_AT_decl_line(0x3f7)
    2484                            .dwattr $C$DW$T$246, DW_AT_decl_column(0x03)
    2485                    
    2486                    
    2487                    $C$DW$T$32      .dwtag  DW_TAG_structure_type
    2488                            .dwattr $C$DW$T$32, DW_AT_byte_size(0x30)
    2489                    $C$DW$145       .dwtag  DW_TAG_member
    2490                            .dwattr $C$DW$145, DW_AT_type(*$C$DW$T$26)
    2491                            .dwattr $C$DW$145, DW_AT_name("CTL")
    2492                            .dwattr $C$DW$145, DW_AT_TI_symbol_name("CTL")
    2493                            .dwattr $C$DW$145, DW_AT_data_member_location[DW_OP_plus_uconst 0x0]
    2494                            .dwattr $C$DW$145, DW_AT_accessibility(DW_ACCESS_public)
    2495                            .dwattr $C$DW$145, DW_AT_decl_file("/Users/jadedh/ti/tirex-content/simplelink_msp432_sdk_1_20_
    2496                            .dwattr $C$DW$145, DW_AT_decl_line(0x4a1)
    2497                            .dwattr $C$DW$145, DW_AT_decl_column(0x11)
    2498                    
    2499                    $C$DW$146       .dwtag  DW_TAG_member
    2500                            .dwattr $C$DW$146, DW_AT_type(*$C$DW$T$30)
    2501                            .dwattr $C$DW$146, DW_AT_name("CCTL")
    2502                            .dwattr $C$DW$146, DW_AT_TI_symbol_name("CCTL")
    2503                            .dwattr $C$DW$146, DW_AT_data_member_location[DW_OP_plus_uconst 0x2]
    2504                            .dwattr $C$DW$146, DW_AT_accessibility(DW_ACCESS_public)
    2505                            .dwattr $C$DW$146, DW_AT_decl_file("/Users/jadedh/ti/tirex-content/simplelink_msp432_sdk_1_20_
    2506                            .dwattr $C$DW$146, DW_AT_decl_line(0x4a2)
    2507                            .dwattr $C$DW$146, DW_AT_decl_column(0x11)
    2508                    
    2509                    $C$DW$147       .dwtag  DW_TAG_member
    2510                            .dwattr $C$DW$147, DW_AT_type(*$C$DW$T$26)
    2511                            .dwattr $C$DW$147, DW_AT_name("R")
    2512                            .dwattr $C$DW$147, DW_AT_TI_symbol_name("R")
    2513                            .dwattr $C$DW$147, DW_AT_data_member_location[DW_OP_plus_uconst 0x10]
    2514                            .dwattr $C$DW$147, DW_AT_accessibility(DW_ACCESS_public)
    2515                            .dwattr $C$DW$147, DW_AT_decl_file("/Users/jadedh/ti/tirex-content/simplelink_msp432_sdk_1_20_
    2516                            .dwattr $C$DW$147, DW_AT_decl_line(0x4a3)
TI ARM Assembler Unix v16.9.0 Sat Apr 29 13:25:12 2017

Tools Copyright (c) 1996-2015 Texas Instruments Incorporated
main.asm                                                             PAGE   48

    2517                            .dwattr $C$DW$147, DW_AT_decl_column(0x11)
    2518                    
    2519                    $C$DW$148       .dwtag  DW_TAG_member
    2520                            .dwattr $C$DW$148, DW_AT_type(*$C$DW$T$30)
    2521                            .dwattr $C$DW$148, DW_AT_name("CCR")
    2522                            .dwattr $C$DW$148, DW_AT_TI_symbol_name("CCR")
    2523                            .dwattr $C$DW$148, DW_AT_data_member_location[DW_OP_plus_uconst 0x12]
    2524                            .dwattr $C$DW$148, DW_AT_accessibility(DW_ACCESS_public)
    2525                            .dwattr $C$DW$148, DW_AT_decl_file("/Users/jadedh/ti/tirex-content/simplelink_msp432_sdk_1_20_
    2526                            .dwattr $C$DW$148, DW_AT_decl_line(0x4a4)
    2527                            .dwattr $C$DW$148, DW_AT_decl_column(0x11)
    2528                    
    2529                    $C$DW$149       .dwtag  DW_TAG_member
    2530                            .dwattr $C$DW$149, DW_AT_type(*$C$DW$T$26)
    2531                            .dwattr $C$DW$149, DW_AT_name("EX0")
    2532                            .dwattr $C$DW$149, DW_AT_TI_symbol_name("EX0")
    2533                            .dwattr $C$DW$149, DW_AT_data_member_location[DW_OP_plus_uconst 0x20]
    2534                            .dwattr $C$DW$149, DW_AT_accessibility(DW_ACCESS_public)
    2535                            .dwattr $C$DW$149, DW_AT_decl_file("/Users/jadedh/ti/tirex-content/simplelink_msp432_sdk_1_20_
    2536                            .dwattr $C$DW$149, DW_AT_decl_line(0x4a5)
    2537                            .dwattr $C$DW$149, DW_AT_decl_column(0x11)
    2538                    
    2539                    $C$DW$150       .dwtag  DW_TAG_member
    2540                            .dwattr $C$DW$150, DW_AT_type(*$C$DW$T$31)
    2541                            .dwattr $C$DW$150, DW_AT_name("RESERVED0")
    2542                            .dwattr $C$DW$150, DW_AT_TI_symbol_name("RESERVED0")
    2543                            .dwattr $C$DW$150, DW_AT_data_member_location[DW_OP_plus_uconst 0x22]
    2544                            .dwattr $C$DW$150, DW_AT_accessibility(DW_ACCESS_public)
    2545                            .dwattr $C$DW$150, DW_AT_decl_file("/Users/jadedh/ti/tirex-content/simplelink_msp432_sdk_1_20_
    2546                            .dwattr $C$DW$150, DW_AT_decl_line(0x4a6)
    2547                            .dwattr $C$DW$150, DW_AT_decl_column(0x11)
    2548                    
    2549                    $C$DW$151       .dwtag  DW_TAG_member
    2550                            .dwattr $C$DW$151, DW_AT_type(*$C$DW$T$23)
    2551                            .dwattr $C$DW$151, DW_AT_name("IV")
    2552                            .dwattr $C$DW$151, DW_AT_TI_symbol_name("IV")
    2553                            .dwattr $C$DW$151, DW_AT_data_member_location[DW_OP_plus_uconst 0x2e]
    2554                            .dwattr $C$DW$151, DW_AT_accessibility(DW_ACCESS_public)
    2555                            .dwattr $C$DW$151, DW_AT_decl_file("/Users/jadedh/ti/tirex-content/simplelink_msp432_sdk_1_20_
    2556                            .dwattr $C$DW$151, DW_AT_decl_line(0x4a7)
    2557                            .dwattr $C$DW$151, DW_AT_decl_column(0x11)
    2558                    
    2559                            .dwattr $C$DW$T$32, DW_AT_decl_file("/Users/jadedh/ti/tirex-content/simplelink_msp432_sdk_1_20
    2560                            .dwattr $C$DW$T$32, DW_AT_decl_line(0x4a0)
    2561                            .dwattr $C$DW$T$32, DW_AT_decl_column(0x10)
    2562                            .dwendtag $C$DW$T$32
    2563                    
    2564                    $C$DW$T$247     .dwtag  DW_TAG_typedef
    2565                            .dwattr $C$DW$T$247, DW_AT_name("Timer_A_Type")
    2566                            .dwattr $C$DW$T$247, DW_AT_type(*$C$DW$T$32)
    2567                            .dwattr $C$DW$T$247, DW_AT_language(DW_LANG_C)
    2568                            .dwattr $C$DW$T$247, DW_AT_decl_file("/Users/jadedh/ti/tirex-content/simplelink_msp432_sdk_1_2
    2569                            .dwattr $C$DW$T$247, DW_AT_decl_line(0x4a8)
    2570                            .dwattr $C$DW$T$247, DW_AT_decl_column(0x03)
    2571                    
TI ARM Assembler Unix v16.9.0 Sat Apr 29 13:25:12 2017

Tools Copyright (c) 1996-2015 Texas Instruments Incorporated
main.asm                                                             PAGE   49

    2572                    
    2573                    $C$DW$T$34      .dwtag  DW_TAG_structure_type
    2574                            .dwattr $C$DW$T$34, DW_AT_byte_size(0x20)
    2575                    $C$DW$152       .dwtag  DW_TAG_member
    2576                            .dwattr $C$DW$152, DW_AT_type(*$C$DW$T$19)
    2577                            .dwattr $C$DW$152, DW_AT_name("RESERVED0")
    2578                            .dwattr $C$DW$152, DW_AT_TI_symbol_name("RESERVED0")
    2579                            .dwattr $C$DW$152, DW_AT_data_member_location[DW_OP_plus_uconst 0x0]
    2580                            .dwattr $C$DW$152, DW_AT_accessibility(DW_ACCESS_public)
    2581                            .dwattr $C$DW$152, DW_AT_decl_file("/Users/jadedh/ti/tirex-content/simplelink_msp432_sdk_1_20_
    2582                            .dwattr $C$DW$152, DW_AT_decl_line(0x295)
    2583                            .dwattr $C$DW$152, DW_AT_decl_column(0x0b)
    2584                    
    2585                    $C$DW$153       .dwtag  DW_TAG_member
    2586                            .dwattr $C$DW$153, DW_AT_type(*$C$DW$T$20)
    2587                            .dwattr $C$DW$153, DW_AT_name("IN")
    2588                            .dwattr $C$DW$153, DW_AT_TI_symbol_name("IN")
    2589                            .dwattr $C$DW$153, DW_AT_data_member_location[DW_OP_plus_uconst 0x1]
    2590                            .dwattr $C$DW$153, DW_AT_accessibility(DW_ACCESS_public)
    2591                            .dwattr $C$DW$153, DW_AT_decl_file("/Users/jadedh/ti/tirex-content/simplelink_msp432_sdk_1_20_
    2592                            .dwattr $C$DW$153, DW_AT_decl_line(0x296)
    2593                            .dwattr $C$DW$153, DW_AT_decl_column(0x0f)
    2594                    
    2595                    $C$DW$154       .dwtag  DW_TAG_member
    2596                            .dwattr $C$DW$154, DW_AT_type(*$C$DW$T$19)
    2597                            .dwattr $C$DW$154, DW_AT_name("RESERVED1")
    2598                            .dwattr $C$DW$154, DW_AT_TI_symbol_name("RESERVED1")
    2599                            .dwattr $C$DW$154, DW_AT_data_member_location[DW_OP_plus_uconst 0x2]
    2600                            .dwattr $C$DW$154, DW_AT_accessibility(DW_ACCESS_public)
    2601                            .dwattr $C$DW$154, DW_AT_decl_file("/Users/jadedh/ti/tirex-content/simplelink_msp432_sdk_1_20_
    2602                            .dwattr $C$DW$154, DW_AT_decl_line(0x297)
    2603                            .dwattr $C$DW$154, DW_AT_decl_column(0x0b)
    2604                    
    2605                    $C$DW$155       .dwtag  DW_TAG_member
    2606                            .dwattr $C$DW$155, DW_AT_type(*$C$DW$T$21)
    2607                            .dwattr $C$DW$155, DW_AT_name("OUT")
    2608                            .dwattr $C$DW$155, DW_AT_TI_symbol_name("OUT")
    2609                            .dwattr $C$DW$155, DW_AT_data_member_location[DW_OP_plus_uconst 0x3]
    2610                            .dwattr $C$DW$155, DW_AT_accessibility(DW_ACCESS_public)
    2611                            .dwattr $C$DW$155, DW_AT_decl_file("/Users/jadedh/ti/tirex-content/simplelink_msp432_sdk_1_20_
    2612                            .dwattr $C$DW$155, DW_AT_decl_line(0x298)
    2613                            .dwattr $C$DW$155, DW_AT_decl_column(0x10)
    2614                    
    2615                    $C$DW$156       .dwtag  DW_TAG_member
    2616                            .dwattr $C$DW$156, DW_AT_type(*$C$DW$T$19)
    2617                            .dwattr $C$DW$156, DW_AT_name("RESERVED2")
    2618                            .dwattr $C$DW$156, DW_AT_TI_symbol_name("RESERVED2")
    2619                            .dwattr $C$DW$156, DW_AT_data_member_location[DW_OP_plus_uconst 0x4]
    2620                            .dwattr $C$DW$156, DW_AT_accessibility(DW_ACCESS_public)
    2621                            .dwattr $C$DW$156, DW_AT_decl_file("/Users/jadedh/ti/tirex-content/simplelink_msp432_sdk_1_20_
    2622                            .dwattr $C$DW$156, DW_AT_decl_line(0x299)
    2623                            .dwattr $C$DW$156, DW_AT_decl_column(0x0b)
    2624                    
    2625                    $C$DW$157       .dwtag  DW_TAG_member
    2626                            .dwattr $C$DW$157, DW_AT_type(*$C$DW$T$21)
TI ARM Assembler Unix v16.9.0 Sat Apr 29 13:25:12 2017

Tools Copyright (c) 1996-2015 Texas Instruments Incorporated
main.asm                                                             PAGE   50

    2627                            .dwattr $C$DW$157, DW_AT_name("DIR")
    2628                            .dwattr $C$DW$157, DW_AT_TI_symbol_name("DIR")
    2629                            .dwattr $C$DW$157, DW_AT_data_member_location[DW_OP_plus_uconst 0x5]
    2630                            .dwattr $C$DW$157, DW_AT_accessibility(DW_ACCESS_public)
    2631                            .dwattr $C$DW$157, DW_AT_decl_file("/Users/jadedh/ti/tirex-content/simplelink_msp432_sdk_1_20_
    2632                            .dwattr $C$DW$157, DW_AT_decl_line(0x29a)
    2633                            .dwattr $C$DW$157, DW_AT_decl_column(0x10)
    2634                    
    2635                    $C$DW$158       .dwtag  DW_TAG_member
    2636                            .dwattr $C$DW$158, DW_AT_type(*$C$DW$T$19)
    2637                            .dwattr $C$DW$158, DW_AT_name("RESERVED3")
    2638                            .dwattr $C$DW$158, DW_AT_TI_symbol_name("RESERVED3")
    2639                            .dwattr $C$DW$158, DW_AT_data_member_location[DW_OP_plus_uconst 0x6]
    2640                            .dwattr $C$DW$158, DW_AT_accessibility(DW_ACCESS_public)
    2641                            .dwattr $C$DW$158, DW_AT_decl_file("/Users/jadedh/ti/tirex-content/simplelink_msp432_sdk_1_20_
    2642                            .dwattr $C$DW$158, DW_AT_decl_line(0x29b)
    2643                            .dwattr $C$DW$158, DW_AT_decl_column(0x0b)
    2644                    
    2645                    $C$DW$159       .dwtag  DW_TAG_member
    2646                            .dwattr $C$DW$159, DW_AT_type(*$C$DW$T$21)
    2647                            .dwattr $C$DW$159, DW_AT_name("REN")
    2648                            .dwattr $C$DW$159, DW_AT_TI_symbol_name("REN")
    2649                            .dwattr $C$DW$159, DW_AT_data_member_location[DW_OP_plus_uconst 0x7]
    2650                            .dwattr $C$DW$159, DW_AT_accessibility(DW_ACCESS_public)
    2651                            .dwattr $C$DW$159, DW_AT_decl_file("/Users/jadedh/ti/tirex-content/simplelink_msp432_sdk_1_20_
    2652                            .dwattr $C$DW$159, DW_AT_decl_line(0x29c)
    2653                            .dwattr $C$DW$159, DW_AT_decl_column(0x10)
    2654                    
    2655                    $C$DW$160       .dwtag  DW_TAG_member
    2656                            .dwattr $C$DW$160, DW_AT_type(*$C$DW$T$19)
    2657                            .dwattr $C$DW$160, DW_AT_name("RESERVED4")
    2658                            .dwattr $C$DW$160, DW_AT_TI_symbol_name("RESERVED4")
    2659                            .dwattr $C$DW$160, DW_AT_data_member_location[DW_OP_plus_uconst 0x8]
    2660                            .dwattr $C$DW$160, DW_AT_accessibility(DW_ACCESS_public)
    2661                            .dwattr $C$DW$160, DW_AT_decl_file("/Users/jadedh/ti/tirex-content/simplelink_msp432_sdk_1_20_
    2662                            .dwattr $C$DW$160, DW_AT_decl_line(0x29d)
    2663                            .dwattr $C$DW$160, DW_AT_decl_column(0x0b)
    2664                    
    2665                    $C$DW$161       .dwtag  DW_TAG_member
    2666                            .dwattr $C$DW$161, DW_AT_type(*$C$DW$T$21)
    2667                            .dwattr $C$DW$161, DW_AT_name("DS")
    2668                            .dwattr $C$DW$161, DW_AT_TI_symbol_name("DS")
    2669                            .dwattr $C$DW$161, DW_AT_data_member_location[DW_OP_plus_uconst 0x9]
    2670                            .dwattr $C$DW$161, DW_AT_accessibility(DW_ACCESS_public)
    2671                            .dwattr $C$DW$161, DW_AT_decl_file("/Users/jadedh/ti/tirex-content/simplelink_msp432_sdk_1_20_
    2672                            .dwattr $C$DW$161, DW_AT_decl_line(0x29e)
    2673                            .dwattr $C$DW$161, DW_AT_decl_column(0x10)
    2674                    
    2675                    $C$DW$162       .dwtag  DW_TAG_member
    2676                            .dwattr $C$DW$162, DW_AT_type(*$C$DW$T$19)
    2677                            .dwattr $C$DW$162, DW_AT_name("RESERVED5")
    2678                            .dwattr $C$DW$162, DW_AT_TI_symbol_name("RESERVED5")
    2679                            .dwattr $C$DW$162, DW_AT_data_member_location[DW_OP_plus_uconst 0xa]
    2680                            .dwattr $C$DW$162, DW_AT_accessibility(DW_ACCESS_public)
    2681                            .dwattr $C$DW$162, DW_AT_decl_file("/Users/jadedh/ti/tirex-content/simplelink_msp432_sdk_1_20_
TI ARM Assembler Unix v16.9.0 Sat Apr 29 13:25:12 2017

Tools Copyright (c) 1996-2015 Texas Instruments Incorporated
main.asm                                                             PAGE   51

    2682                            .dwattr $C$DW$162, DW_AT_decl_line(0x29f)
    2683                            .dwattr $C$DW$162, DW_AT_decl_column(0x0b)
    2684                    
    2685                    $C$DW$163       .dwtag  DW_TAG_member
    2686                            .dwattr $C$DW$163, DW_AT_type(*$C$DW$T$21)
    2687                            .dwattr $C$DW$163, DW_AT_name("SEL0")
    2688                            .dwattr $C$DW$163, DW_AT_TI_symbol_name("SEL0")
    2689                            .dwattr $C$DW$163, DW_AT_data_member_location[DW_OP_plus_uconst 0xb]
    2690                            .dwattr $C$DW$163, DW_AT_accessibility(DW_ACCESS_public)
    2691                            .dwattr $C$DW$163, DW_AT_decl_file("/Users/jadedh/ti/tirex-content/simplelink_msp432_sdk_1_20_
    2692                            .dwattr $C$DW$163, DW_AT_decl_line(0x2a0)
    2693                            .dwattr $C$DW$163, DW_AT_decl_column(0x10)
    2694                    
    2695                    $C$DW$164       .dwtag  DW_TAG_member
    2696                            .dwattr $C$DW$164, DW_AT_type(*$C$DW$T$19)
    2697                            .dwattr $C$DW$164, DW_AT_name("RESERVED6")
    2698                            .dwattr $C$DW$164, DW_AT_TI_symbol_name("RESERVED6")
    2699                            .dwattr $C$DW$164, DW_AT_data_member_location[DW_OP_plus_uconst 0xc]
    2700                            .dwattr $C$DW$164, DW_AT_accessibility(DW_ACCESS_public)
    2701                            .dwattr $C$DW$164, DW_AT_decl_file("/Users/jadedh/ti/tirex-content/simplelink_msp432_sdk_1_20_
    2702                            .dwattr $C$DW$164, DW_AT_decl_line(0x2a1)
    2703                            .dwattr $C$DW$164, DW_AT_decl_column(0x0b)
    2704                    
    2705                    $C$DW$165       .dwtag  DW_TAG_member
    2706                            .dwattr $C$DW$165, DW_AT_type(*$C$DW$T$21)
    2707                            .dwattr $C$DW$165, DW_AT_name("SEL1")
    2708                            .dwattr $C$DW$165, DW_AT_TI_symbol_name("SEL1")
    2709                            .dwattr $C$DW$165, DW_AT_data_member_location[DW_OP_plus_uconst 0xd]
    2710                            .dwattr $C$DW$165, DW_AT_accessibility(DW_ACCESS_public)
    2711                            .dwattr $C$DW$165, DW_AT_decl_file("/Users/jadedh/ti/tirex-content/simplelink_msp432_sdk_1_20_
    2712                            .dwattr $C$DW$165, DW_AT_decl_line(0x2a2)
    2713                            .dwattr $C$DW$165, DW_AT_decl_column(0x10)
    2714                    
    2715                    $C$DW$166       .dwtag  DW_TAG_member
    2716                            .dwattr $C$DW$166, DW_AT_type(*$C$DW$T$33)
    2717                            .dwattr $C$DW$166, DW_AT_name("RESERVED7")
    2718                            .dwattr $C$DW$166, DW_AT_TI_symbol_name("RESERVED7")
    2719                            .dwattr $C$DW$166, DW_AT_data_member_location[DW_OP_plus_uconst 0xe]
    2720                            .dwattr $C$DW$166, DW_AT_accessibility(DW_ACCESS_public)
    2721                            .dwattr $C$DW$166, DW_AT_decl_file("/Users/jadedh/ti/tirex-content/simplelink_msp432_sdk_1_20_
    2722                            .dwattr $C$DW$166, DW_AT_decl_line(0x2a3)
    2723                            .dwattr $C$DW$166, DW_AT_decl_column(0x0b)
    2724                    
    2725                    $C$DW$167       .dwtag  DW_TAG_member
    2726                            .dwattr $C$DW$167, DW_AT_type(*$C$DW$T$21)
    2727                            .dwattr $C$DW$167, DW_AT_name("SELC")
    2728                            .dwattr $C$DW$167, DW_AT_TI_symbol_name("SELC")
    2729                            .dwattr $C$DW$167, DW_AT_data_member_location[DW_OP_plus_uconst 0x17]
    2730                            .dwattr $C$DW$167, DW_AT_accessibility(DW_ACCESS_public)
    2731                            .dwattr $C$DW$167, DW_AT_decl_file("/Users/jadedh/ti/tirex-content/simplelink_msp432_sdk_1_20_
    2732                            .dwattr $C$DW$167, DW_AT_decl_line(0x2a4)
    2733                            .dwattr $C$DW$167, DW_AT_decl_column(0x10)
    2734                    
    2735                    $C$DW$168       .dwtag  DW_TAG_member
    2736                            .dwattr $C$DW$168, DW_AT_type(*$C$DW$T$19)
TI ARM Assembler Unix v16.9.0 Sat Apr 29 13:25:12 2017

Tools Copyright (c) 1996-2015 Texas Instruments Incorporated
main.asm                                                             PAGE   52

    2737                            .dwattr $C$DW$168, DW_AT_name("RESERVED8")
    2738                            .dwattr $C$DW$168, DW_AT_TI_symbol_name("RESERVED8")
    2739                            .dwattr $C$DW$168, DW_AT_data_member_location[DW_OP_plus_uconst 0x18]
    2740                            .dwattr $C$DW$168, DW_AT_accessibility(DW_ACCESS_public)
    2741                            .dwattr $C$DW$168, DW_AT_decl_file("/Users/jadedh/ti/tirex-content/simplelink_msp432_sdk_1_20_
    2742                            .dwattr $C$DW$168, DW_AT_decl_line(0x2a5)
    2743                            .dwattr $C$DW$168, DW_AT_decl_column(0x0b)
    2744                    
    2745                    $C$DW$169       .dwtag  DW_TAG_member
    2746                            .dwattr $C$DW$169, DW_AT_type(*$C$DW$T$21)
    2747                            .dwattr $C$DW$169, DW_AT_name("IES")
    2748                            .dwattr $C$DW$169, DW_AT_TI_symbol_name("IES")
    2749                            .dwattr $C$DW$169, DW_AT_data_member_location[DW_OP_plus_uconst 0x19]
    2750                            .dwattr $C$DW$169, DW_AT_accessibility(DW_ACCESS_public)
    2751                            .dwattr $C$DW$169, DW_AT_decl_file("/Users/jadedh/ti/tirex-content/simplelink_msp432_sdk_1_20_
    2752                            .dwattr $C$DW$169, DW_AT_decl_line(0x2a6)
    2753                            .dwattr $C$DW$169, DW_AT_decl_column(0x10)
    2754                    
    2755                    $C$DW$170       .dwtag  DW_TAG_member
    2756                            .dwattr $C$DW$170, DW_AT_type(*$C$DW$T$19)
    2757                            .dwattr $C$DW$170, DW_AT_name("RESERVED9")
    2758                            .dwattr $C$DW$170, DW_AT_TI_symbol_name("RESERVED9")
    2759                            .dwattr $C$DW$170, DW_AT_data_member_location[DW_OP_plus_uconst 0x1a]
    2760                            .dwattr $C$DW$170, DW_AT_accessibility(DW_ACCESS_public)
    2761                            .dwattr $C$DW$170, DW_AT_decl_file("/Users/jadedh/ti/tirex-content/simplelink_msp432_sdk_1_20_
    2762                            .dwattr $C$DW$170, DW_AT_decl_line(0x2a7)
    2763                            .dwattr $C$DW$170, DW_AT_decl_column(0x0b)
    2764                    
    2765                    $C$DW$171       .dwtag  DW_TAG_member
    2766                            .dwattr $C$DW$171, DW_AT_type(*$C$DW$T$21)
    2767                            .dwattr $C$DW$171, DW_AT_name("IE")
    2768                            .dwattr $C$DW$171, DW_AT_TI_symbol_name("IE")
    2769                            .dwattr $C$DW$171, DW_AT_data_member_location[DW_OP_plus_uconst 0x1b]
    2770                            .dwattr $C$DW$171, DW_AT_accessibility(DW_ACCESS_public)
    2771                            .dwattr $C$DW$171, DW_AT_decl_file("/Users/jadedh/ti/tirex-content/simplelink_msp432_sdk_1_20_
    2772                            .dwattr $C$DW$171, DW_AT_decl_line(0x2a8)
    2773                            .dwattr $C$DW$171, DW_AT_decl_column(0x10)
    2774                    
    2775                    $C$DW$172       .dwtag  DW_TAG_member
    2776                            .dwattr $C$DW$172, DW_AT_type(*$C$DW$T$19)
    2777                            .dwattr $C$DW$172, DW_AT_name("RESERVED10")
    2778                            .dwattr $C$DW$172, DW_AT_TI_symbol_name("RESERVED10")
    2779                            .dwattr $C$DW$172, DW_AT_data_member_location[DW_OP_plus_uconst 0x1c]
    2780                            .dwattr $C$DW$172, DW_AT_accessibility(DW_ACCESS_public)
    2781                            .dwattr $C$DW$172, DW_AT_decl_file("/Users/jadedh/ti/tirex-content/simplelink_msp432_sdk_1_20_
    2782                            .dwattr $C$DW$172, DW_AT_decl_line(0x2a9)
    2783                            .dwattr $C$DW$172, DW_AT_decl_column(0x0b)
    2784                    
    2785                    $C$DW$173       .dwtag  DW_TAG_member
    2786                            .dwattr $C$DW$173, DW_AT_type(*$C$DW$T$21)
    2787                            .dwattr $C$DW$173, DW_AT_name("IFG")
    2788                            .dwattr $C$DW$173, DW_AT_TI_symbol_name("IFG")
    2789                            .dwattr $C$DW$173, DW_AT_data_member_location[DW_OP_plus_uconst 0x1d]
    2790                            .dwattr $C$DW$173, DW_AT_accessibility(DW_ACCESS_public)
    2791                            .dwattr $C$DW$173, DW_AT_decl_file("/Users/jadedh/ti/tirex-content/simplelink_msp432_sdk_1_20_
TI ARM Assembler Unix v16.9.0 Sat Apr 29 13:25:12 2017

Tools Copyright (c) 1996-2015 Texas Instruments Incorporated
main.asm                                                             PAGE   53

    2792                            .dwattr $C$DW$173, DW_AT_decl_line(0x2aa)
    2793                            .dwattr $C$DW$173, DW_AT_decl_column(0x10)
    2794                    
    2795                    $C$DW$174       .dwtag  DW_TAG_member
    2796                            .dwattr $C$DW$174, DW_AT_type(*$C$DW$T$23)
    2797                            .dwattr $C$DW$174, DW_AT_name("IV")
    2798                            .dwattr $C$DW$174, DW_AT_TI_symbol_name("IV")
    2799                            .dwattr $C$DW$174, DW_AT_data_member_location[DW_OP_plus_uconst 0x1e]
    2800                            .dwattr $C$DW$174, DW_AT_accessibility(DW_ACCESS_public)
    2801                            .dwattr $C$DW$174, DW_AT_decl_file("/Users/jadedh/ti/tirex-content/simplelink_msp432_sdk_1_20_
    2802                            .dwattr $C$DW$174, DW_AT_decl_line(0x2ab)
    2803                            .dwattr $C$DW$174, DW_AT_decl_column(0x10)
    2804                    
    2805                            .dwattr $C$DW$T$34, DW_AT_decl_file("/Users/jadedh/ti/tirex-content/simplelink_msp432_sdk_1_20
    2806                            .dwattr $C$DW$T$34, DW_AT_decl_line(0x294)
    2807                            .dwattr $C$DW$T$34, DW_AT_decl_column(0x10)
    2808                            .dwendtag $C$DW$T$34
    2809                    
    2810                    $C$DW$T$249     .dwtag  DW_TAG_typedef
    2811                            .dwattr $C$DW$T$249, DW_AT_name("DIO_PORT_Even_Interruptable_Type")
    2812                            .dwattr $C$DW$T$249, DW_AT_type(*$C$DW$T$34)
    2813                            .dwattr $C$DW$T$249, DW_AT_language(DW_LANG_C)
    2814                            .dwattr $C$DW$T$249, DW_AT_decl_file("/Users/jadedh/ti/tirex-content/simplelink_msp432_sdk_1_2
    2815                            .dwattr $C$DW$T$249, DW_AT_decl_line(0x2ac)
    2816                            .dwattr $C$DW$T$249, DW_AT_decl_column(0x03)
    2817                    
    2818                    
    2819                    $C$DW$T$35      .dwtag  DW_TAG_structure_type
    2820                            .dwattr $C$DW$T$35, DW_AT_byte_size(0x0e)
    2821                    $C$DW$175       .dwtag  DW_TAG_member
    2822                            .dwattr $C$DW$175, DW_AT_type(*$C$DW$T$31)
    2823                            .dwattr $C$DW$175, DW_AT_name("RESERVED0")
    2824                            .dwattr $C$DW$175, DW_AT_TI_symbol_name("RESERVED0")
    2825                            .dwattr $C$DW$175, DW_AT_data_member_location[DW_OP_plus_uconst 0x0]
    2826                            .dwattr $C$DW$175, DW_AT_accessibility(DW_ACCESS_public)
    2827                            .dwattr $C$DW$175, DW_AT_decl_file("/Users/jadedh/ti/tirex-content/simplelink_msp432_sdk_1_20_
    2828                            .dwattr $C$DW$175, DW_AT_decl_line(0x513)
    2829                            .dwattr $C$DW$175, DW_AT_decl_column(0x11)
    2830                    
    2831                    $C$DW$176       .dwtag  DW_TAG_member
    2832                            .dwattr $C$DW$176, DW_AT_type(*$C$DW$T$26)
    2833                            .dwattr $C$DW$176, DW_AT_name("CTL")
    2834                            .dwattr $C$DW$176, DW_AT_TI_symbol_name("CTL")
    2835                            .dwattr $C$DW$176, DW_AT_data_member_location[DW_OP_plus_uconst 0xc]
    2836                            .dwattr $C$DW$176, DW_AT_accessibility(DW_ACCESS_public)
    2837                            .dwattr $C$DW$176, DW_AT_decl_file("/Users/jadedh/ti/tirex-content/simplelink_msp432_sdk_1_20_
    2838                            .dwattr $C$DW$176, DW_AT_decl_line(0x514)
    2839                            .dwattr $C$DW$176, DW_AT_decl_column(0x11)
    2840                    
    2841                            .dwattr $C$DW$T$35, DW_AT_decl_file("/Users/jadedh/ti/tirex-content/simplelink_msp432_sdk_1_20
    2842                            .dwattr $C$DW$T$35, DW_AT_decl_line(0x512)
    2843                            .dwattr $C$DW$T$35, DW_AT_decl_column(0x10)
    2844                            .dwendtag $C$DW$T$35
    2845                    
    2846                    $C$DW$T$251     .dwtag  DW_TAG_typedef
TI ARM Assembler Unix v16.9.0 Sat Apr 29 13:25:12 2017

Tools Copyright (c) 1996-2015 Texas Instruments Incorporated
main.asm                                                             PAGE   54

    2847                            .dwattr $C$DW$T$251, DW_AT_name("WDT_A_Type")
    2848                            .dwattr $C$DW$T$251, DW_AT_type(*$C$DW$T$35)
    2849                            .dwattr $C$DW$T$251, DW_AT_language(DW_LANG_C)
    2850                            .dwattr $C$DW$T$251, DW_AT_decl_file("/Users/jadedh/ti/tirex-content/simplelink_msp432_sdk_1_2
    2851                            .dwattr $C$DW$T$251, DW_AT_decl_line(0x515)
    2852                            .dwattr $C$DW$T$251, DW_AT_decl_column(0x03)
    2853                    
    2854                    
    2855                    $C$DW$T$44      .dwtag  DW_TAG_structure_type
    2856                            .dwattr $C$DW$T$44, DW_AT_byte_size(0x8c)
    2857                    $C$DW$177       .dwtag  DW_TAG_member
    2858                            .dwattr $C$DW$177, DW_AT_type(*$C$DW$T$37)
    2859                            .dwattr $C$DW$177, DW_AT_name("CPUID")
    2860                            .dwattr $C$DW$177, DW_AT_TI_symbol_name("CPUID")
    2861                            .dwattr $C$DW$177, DW_AT_data_member_location[DW_OP_plus_uconst 0x0]
    2862                            .dwattr $C$DW$177, DW_AT_accessibility(DW_ACCESS_public)
    2863                            .dwattr $C$DW$177, DW_AT_decl_file("/Users/jadedh/ti/tirex-content/simplelink_msp432_sdk_1_20_
    2864                            .dwattr $C$DW$177, DW_AT_decl_line(0x1e7)
    2865                            .dwattr $C$DW$177, DW_AT_decl_column(0x12)
    2866                    
    2867                    $C$DW$178       .dwtag  DW_TAG_member
    2868                            .dwattr $C$DW$178, DW_AT_type(*$C$DW$T$38)
    2869                            .dwattr $C$DW$178, DW_AT_name("ICSR")
    2870                            .dwattr $C$DW$178, DW_AT_TI_symbol_name("ICSR")
    2871                            .dwattr $C$DW$178, DW_AT_data_member_location[DW_OP_plus_uconst 0x4]
    2872                            .dwattr $C$DW$178, DW_AT_accessibility(DW_ACCESS_public)
    2873                            .dwattr $C$DW$178, DW_AT_decl_file("/Users/jadedh/ti/tirex-content/simplelink_msp432_sdk_1_20_
    2874                            .dwattr $C$DW$178, DW_AT_decl_line(0x1e8)
    2875                            .dwattr $C$DW$178, DW_AT_decl_column(0x12)
    2876                    
    2877                    $C$DW$179       .dwtag  DW_TAG_member
    2878                            .dwattr $C$DW$179, DW_AT_type(*$C$DW$T$38)
    2879                            .dwattr $C$DW$179, DW_AT_name("VTOR")
